(dp1
VDB01412
p2
(lp3
V4uhr
p4
aV1upe
p5
aV2ydv
p6
aV3vg9
p7
aV2ydo
p8
aV4wzi
p9
aV4x0f
p10
aV3g45
p11
aV3hmv
p12
aV1f0j
p13
aV2efj
p14
asVDB00898
p15
(lp16
V2m6b
p17
aV2m6i
p18
aV1vry
p19
aV1zhd
p20
aV1mot
p21
aV1u3t
p22
aV1hso
p23
aV1u3u
p24
aV1u3v
p25
aV1deh
p26
aV1hsz
p27
aV1hdx
p28
aV1u3w
p29
aV1ht0
p30
aV1dda
p31
aV4l8n
p32
aV3obe
p33
aV3h4x
p34
aV3h4w
p35
aV3ult
p36
aV3oxk
p37
aV4ejo
p38
aV2ymw
p39
aV1oof
p40
aV3b7a
p41
aV3b86
p42
aV1mxg
p43
aV7a3h
p44
asVDB01099
p45
(lp46
V3swr
p47
aV3pta
p48
aV3epz
p49
aV4jnr
p50
aV4r88
p51
asVDB01098
p52
(lp53
V1hwl
p54
asVDB01095
p55
(lp56
V1hwi
p57
asVDB01096
p58
(lp59
V4mub
p60
asVDB05109
p61
(lp62
sVDB01092
p63
(lp64
V4hyt
p65
aV3n23
p66
aV3a3y
p67
aV1ibg
p68
aV1ibg
p69
asVDB01259
p70
(lp71
V1xkk
p72
aV3n85
p73
aV3be1
p74
aV3mzw
p75
aV1s78
p76
aV3wsq
p77
asVDB01258
p78
(lp79
V2v0z
p80
asVDB01256
p81
(lp82
sVDB01254
p83
(lp84
V2dq7
p85
aV1g83
p86
aV1aot
p87
aV1aou
p88
aV3ua7
p89
aV4xey
p90
aV2gqg
p91
aV1y57
p92
aV2src
p93
aV1ksw
p94
aV4k11
p95
aV2h8h
p96
aV2x11
p97
aV2x10
p98
aV3fl7
p99
aV3mx0
p100
aV3mbw
p101
aV2of2
p102
aV2ofu
p103
aV3ad5
p104
aV3ad6
p105
aV2of4
p106
aV2hda
p107
aV2e9w
p108
aV2ec8
p109
aV1qzj
p110
aV1qzk
p111
aV1r01
p112
aV1lwp
p113
aV3mjg
p114
aV2l6w
p115
aV1gq5
p116
aV2pld
p117
aV3hmi
p118
aV2xyn
p119
aV3nsv
p120
aV3gvu
p121
aV2kk1
p122
aV3oht
p123
aV4xli
p124
aV3qlg
p125
aV3g5d
p126
aV2zva
p127
aV3sxr
p128
aV2y6o
p129
aV3oct
p130
aV3k54
p131
aV3lfa
p132
asVDB01077
p133
(lp134
V2fh7
p135
aV4pbx
p136
aV4bpc
p137
aV2yd9
p138
aV2yd3
p139
aV3sdv
p140
asVDB01076
p141
(lp142
V1hwk
p143
aV2bgr
p144
aV3vjm
p145
aV1wcy
p146
aV3w2t
p147
aV3vjl
p148
asVDB01075
p149
(lp150
sVDB00958
p151
(lp152
V4xan
p153
aV3txi
p154
aV4dd7
p155
aV4dd9
p156
aV3txh
p157
asVDB01072
p158
(lp159
V2aqu
p160
aV2o4k
p161
aV2fnd
p162
aV3el1
p163
aV3eky
p164
aV3el9
p165
aV3oxx
p166
aV3em4
p167
aV2fxe
p168
aV2fxd
p169
asVDB01179
p170
(lp171
V1lwz
p172
aV4fm9
p173
aV1zxm
p174
aV1zxn
p175
aV4r1f
p176
aV1sa1
p177
asVDB01177
p178
(lp179
V1lwz
p180
aV4fm9
p181
aV1zxm
p182
aV1zxn
p183
aV4r1f
p184
aV3arq
p185
asVDB01172
p186
(lp187
V4tp8
p188
aV4tpa
p189
aV4tpc
p190
aV4tpe
p191
aV4kiy
p192
aV4gki
p193
aV4few
p194
aV4fev
p195
aV4gkh
p196
aV4fex
p197
aV3u6t
p198
aV3r82
p199
aV4dfb
p200
aV3vcq
p201
aV4dfu
p202
aV3sg9
p203
aV1nd4
p204
aV1kny
p205
aV1l8t
p206
aV4wql
p207
aV3q5r
p208
aV1m4i
p209
aV3kp5
p210
asVDB00778
p211
(lp212
sVDB00470
p213
(lp214
V2koe
p215
aV2b0y
p216
aV2ki9
p217
aV3ls4
p218
aV3ls4
p219
asVDB00471
p220
(lp221
V2abv
p222
aV3o8y
p223
aV3v92
p224
aV3v98
p225
aV3v99
p226
aV2nni
p227
asVDB00472
p228
(lp229
sVDB00476
p230
(lp231
sVDB00477
p232
(lp233
V1i15
p234
aV2you
p235
aV5aer
p236
aV1oz5
p237
aV4ma8
p238
aV3apx
p239
asVDB00478
p240
(lp241
V2ljc
p242
aV2rlf
p243
asVDB00479
p244
(lp245
V4tp8
p246
aV4tpa
p247
aV4tpc
p248
aV4tpe
p249
aV4kiy
p250
asVDB00578
p251
(lp252
V4gcq
p253
asVDB01001
p254
(lp255
V3pds
p256
aV4gbr
p257
aV3kj6
p258
aV2r4r
p259
aV2r4s
p260
aV2lsq
p261
aV2y04
p262
asVDB01004
p263
(lp264
V1ki2
p265
aV4da6
p266
asVDB01005
p267
(lp268
V3hnd
p269
aV3hne
p270
aV3hnf
p271
aV3hnc
p272
aV2wgh
p273
aV3ub9
p274
asVDB00570
p275
(lp276
V3cb2
p277
aV1z5v
p278
aV1z5w
p279
aV1t2k
p280
aV1fos
p281
aV1jnm
p282
aV1s9k
p283
aV1a02
p284
aV4eb6
p285
aV1z2b
p286
asVDB00573
p287
(lp288
V1v0x
p289
aV4ned
p290
aV2x7h
p291
asVDB00572
p292
(lp293
V4mqs
p294
aV4mqt
p295
aV1lub
p296
aV2csa
p297
aV2arm
p298
aV1th6
p299
aV3osh
p300
aV2x8o
p301
aV2x8p
p302
asVDB00575
p303
(lp304
V1hll
p305
aV1hof
p306
aV1ho9
p307
aV1hod
p308
aV2cva
p309
aV2pnc
p310
asVDB00577
p311
(lp312
V4aql
p313
asVDB00619
p314
(lp315
V1t46
p316
aV2ifg
p317
aV4gt5
p318
aV4f0i
p319
aV4pmm
p320
aV4pms
p321
aV4liq
p322
aV2ogv
p323
aV3bea
p324
aV2i1m
p325
aV3krj
p326
aV4bkj
p327
aV3pyy
p328
aV2hyy
p329
aV1lwp
p330
aV3mjg
p331
aV2l6w
p332
aV1gq5
p333
aV2pld
p334
aV1opj
p335
aV3k5v
p336
aV1iep
p337
aV3ms9
p338
aV3mss
p339
aV2oiq
p340
aV3oez
p341
aV3fw1
p342
aV1xbb
p343
aV3hec
p344
aV4csv
p345
asVDB00753
p346
(lp347
V2m6b
p348
aV2m6i
p349
aV1vry
p350
aV1zhd
p351
aV1mot
p352
aV2afl
p353
aV4djc
p354
aV2jzi
p355
aV2k0e
p356
aV2kne
p357
aV2l53
p358
aV1xz3
p359
asVDB00752
p360
(lp361
V2z5x
p362
aV2z5y
p363
aV2bxs
p364
aV1h8q
p365
aV2bxr
p366
aV1s3e
p367
aV2v5z
p368
aV2xfn
p369
aV1s3b
p370
aV2xfp
p371
asVDB00755
p372
(lp373
V1uhl
p374
aV1h9u
p375
aV2gl8
p376
aV2lbd
p377
aV3lbd
p378
aV4lbd
p379
aV1exa
p380
aV1exx
p381
aV4wpn
p382
aV4wp7
p383
aV4wb9
p384
aV4wj9
p385
aV4x4l
p386
aV4tns
p387
asVDB00208
p388
(lp389
V1t78
p390
aV1vz1
p391
aV1y9c
p392
aV3kw4
p393
asVDB00207
p394
(lp395
V2vhm
p396
aV2vhn
p397
asVDB00758
p398
(lp399
V1t78
p400
aV1vz1
p401
aV1y9c
p402
aV3me6
p403
aV4h1n
p404
asVDB00205
p405
(lp406
V1kmv
p407
aV3fs6
p408
aV3ghw
p409
aV3ntz
p410
aV3nu0
p411
aV1j3j
p412
aV3qgt
p413
aV3um5
p414
aV3qg2
p415
aV2bl9
p416
aV2bla
p417
aV3lmy
p418
aV4km0
p419
aV3qfx
p420
asVDB00613
p421
(lp422
V2aou
p423
aV4fgz
p424
asVDB00614
p425
(lp426
V1oay
p427
asVDB00202
p428
(lp429
V4mqs
p430
aV4mqt
p431
aV1lub
p432
aV2csa
p433
aV2ha2
p434
aV2ha6
p435
asVDB00201
p436
(lp437
V3rfm
p438
aV4wzi
p439
aV4x0f
p440
aV3g45
p441
aV3hmv
p442
aV1f0j
p443
aV3g6m
p444
aV1gfz
p445
aV1c8l
p446
aV2a3b
p447
asVDB00200
p448
(lp449
V4ccz
p450
aV2o2k
p451
aV3bic
p452
aV2xiq
p453
aV2xij
p454
aV2qtz
p455
aV2qtl
p456
aV2www
p457
aV2ckv
p458
aV4kki
p459
aV4kkj
p460
aV3kq4
p461
aV2idx
p462
aV3sc0
p463
aV3sbz
p464
aV3som
p465
aV3sby
p466
asVDB08882
p467
(lp468
V2rgu
p469
asVDB08889
p470
(lp471
V4r3o
p472
aV4r3o
p473
aV4r3o
p474
aV4qwg
p475
aV4qwi
p476
aV4qwl
p477
aV4qw7
p478
aV4qw4
p479
asVDB00683
p480
(lp481
V4cof
p482
aV3u5k
p483
asVDB00682
p484
(lp485
sVDB00687
p486
(lp487
V2aax
p488
aV2aa6
p489
aV2ab2
p490
aV3wff
p491
aV2aa5
p492
aV1m2z
p493
aV3bqd
p494
aV3k22
p495
aV3e7c
p496
aV4p6w
p497
aV1gs4
p498
asVDB00685
p499
(lp500
V1lwz
p501
aV4fm9
p502
aV1zxm
p503
aV1zxn
p504
aV4r1f
p505
asVDB00684
p506
(lp507
V4tp8
p508
aV4tpa
p509
aV4tpc
p510
aV4tpe
p511
aV4kiy
p512
aV4ebk
p513
aV4jd6
p514
aV3sg8
p515
aV1m4d
p516
aV4evy
p517
aV3vet
p518
asVDB00373
p519
(lp520
V2lsq
p521
aV3pds
p522
aV4gbr
p523
aV3kj6
p524
aV2r4r
p525
aV2r4s
p526
aV3d4s
p527
asVDB00278
p528
(lp529
V4rn6
p530
aV4hfp
p531
asVDB00279
p532
(lp533
V3ilz
p534
aV2h79
p535
aV4lnw
p536
aV3jzb
p537
aV4lnx
p538
aV2j4a
p539
aV1nax
p540
aV1nq0
p541
aV1nq2
p542
aV1n46
p543
asVDB00273
p544
(lp545
V4mf3
p546
aV3fv1
p547
aV3fv2
p548
aV3fvg
p549
aV3fvk
p550
aV3hku
p551
aV1znc
p552
aV3f7b
p553
aV3fw3
p554
aV3f7u
p555
asVDB00379
p556
(lp557
V4dck
p558
aV4ovn
p559
aV4jq0
p560
aV2kbi
p561
aV2l53
p562
asVDB00276
p563
(lp564
V1lwz
p565
aV4fm9
p566
aV1zxm
p567
aV1zxn
p568
aV4r1f
p569
aV2l0w
p570
aV2l1m
p571
aV2l4r
p572
aV4hp9
p573
aV4hqa
p574
aV4g0u
p575
asVDB00277
p576
(lp577
V4uhr
p578
aV1upe
p579
aV2ydv
p580
aV3vg9
p581
aV2ydo
p582
aV4wzi
p583
aV4x0f
p584
aV3g45
p585
aV3hmv
p586
aV1f0j
p587
aV3lfv
p588
aV3mf0
p589
aV2h44
p590
aV2h42
p591
aV1udt
p592
aV2qyk
p593
aV3tvx
p594
aV3i8v
p595
aV1lrc
p596
aV4ly1
p597
aV4lxz
p598
aV3max
p599
aV2a3a
p600
aV3rox
p601
asVDB00274
p602
(lp603
V3vma
p604
aV3fwl
p605
aV3fwm
p606
aV3mzf
p607
aV1z6f
p608
aV3mzd
p609
aV3beb
p610
aV3bec
p611
aV3ita
p612
aV3it9
p613
aV3itb
p614
aV4kos
p615
asVDB00831
p616
(lp617
V1i15
p618
aV2you
p619
aV5aer
p620
aV1ctr
p621
aV1wrk
p622
aV1wrl
p623
aV3ko0
p624
aV1lin
p625
aV1a29
p626
aV2cln
p627
asVDB06605
p628
(lp629
V2p16
p630
asVDB00295
p631
(lp632
V2a0d
p633
aV1ozc
p634
aV1q0y
p635
asVDB00291
p636
(lp637
V21gs
p638
asVDB00293
p639
(lp640
V1hvy
p641
aV1i00
p642
aV3nrr
p643
aV4eb4
p644
aV2kce
p645
aV2tsr
p646
aV1rts
p647
aV4fox
p648
aV4iqq
p649
asVDB00299
p650
(lp651
sVDB00884
p652
(lp653
V4ng6
p654
aV4kpd
p655
aV2qis
p656
aV4kqs
p657
aV4nke
p658
aV1rqj
p659
aV2o1o
p660
aV4rxd
p661
aV1yhl
p662
asVDB00199
p663
(lp664
V2vhm
p665
aV2vhn
p666
aV2j0d
p667
aV4m83
p668
aV2iyf
p669
aV3frq
p670
asVDB00196
p671
(lp672
V2ij7
p673
asVDB00194
p674
(lp675
V1h15
p676
aV1pw7
p677
aV3glq
p678
asVDB00190
p679
(lp680
V3rch
p681
aV3rbf
p682
aV3rbl
p683
asVDB01283
p684
(lp685
V1v0x
p686
aV4ik6
p687
aV4iiz
p688
aV4llz
p689
aV4oty
p690
aV4rrw
p691
aV4rrz
p692
aV4rrx
p693
asVDB01093
p694
(lp695
V3lcr
p696
aV3luf
p697
aV4kuf
p698
aV2ynd
p699
aV4c68
p700
aV4cae
p701
aV4b14
p702
aV4b10
p703
aV2vj1
p704
aV3p1v
p705
aV3d7r
p706
aV4ctk
p707
aV4o30
p708
aV3mla
p709
aV3mmx
p710
asVDB00997
p711
(lp712
V1lwz
p713
aV4fm9
p714
aV1zxm
p715
aV1zxn
p716
aV4r1f
p717
aV4dx7
p718
aV2dr6
p719
asVDB00996
p720
(lp721
V2lcm
p722
aV2a1h
p723
aV2coj
p724
aV2coi
p725
aV2ej3
p726
asVDB01211
p727
(lp728
sVDB00994
p729
(lp730
V4tp8
p731
aV4tpa
p732
aV4tpc
p733
aV4tpe
p734
aV4kiy
p735
aV1l8u
p736
aV2b0q
p737
asVDB01216
p738
(lp739
V3buv
p740
aV3bur
p741
aV3g1r
p742
aV3bv7
p743
aV3cav
p744
asVDB00990
p745
(lp746
V3s7s
p747
asVDB01356
p748
(lp749
V4nm5
p750
aV3i4b
p751
aV4nm0
p752
aV1j1b
p753
aV1j1c
p754
aV4as4
p755
aV1imb
p756
aV1ime
p757
aV1ima
p758
aV2hhm
p759
aV2czi
p760
aV2ddk
p761
aV2czh
p762
aV2czk
p763
aV2fvz
p764
asVDB00999
p765
(lp766
V1bzm
p767
aV1czm
p768
aV2nmx
p769
aV1hcb
p770
aV2nn1
p771
aV1lug
p772
aV2qo8
p773
aV4r5b
p774
aV3igp
p775
aV3sbh
p776
aV1znc
p777
aV3f7b
p778
aV3fw3
p779
aV3f7u
p780
aV3iai
p781
aV4kp5
p782
aV4qjw
p783
aV4kp8
p784
aV4qjo
p785
aV4q0l
p786
aV3naf
p787
aV3mt5
p788
aV2k44
p789
aV3ik6
p790
aV3ijx
p791
asVDB01033
p792
(lp793
V1bzy
p794
aV1hmp
p795
aV3ggj
p796
aV3gep
p797
aV1d6n
p798
aV3bgd
p799
aV3ns1
p800
asVDB00705
p801
(lp802
V1klm
p803
asVDB00843
p804
(lp805
V4ey7
p806
aV1eve
p807
aV3ace
p808
aV4ace
p809
asVDB01034
p810
(lp811
V2buh
p812
aV2bui
p813
aV2bz4
p814
aV2byz
p815
aV1h4f
p816
aV1kas
p817
aV2gfw
p818
aV1b3n
p819
aV3ho9
p820
aV3i8p
p821
aV1hnj
p822
aV1hnd
p823
aV1hn9
p824
aV2eft
p825
aV2gyo
p826
aV3hhd
p827
aV4piv
p828
aV2jfd
p829
aV2jfk
p830
aV4w9n
p831
aV4ls7
p832
asVDB06770
p833
(lp834
V4ii8
p835
asVDB00323
p836
(lp837
V4xuc
p838
aV4xud
p839
aV3bwm
p840
aV4pyk
p841
aV4xue
p842
aV3s68
p843
aV4pyl
p844
asVDB00537
p845
(lp846
V1lwz
p847
aV4fm9
p848
aV1zxm
p849
aV1zxn
p850
aV4r1f
p851
aV1t9u
p852
aV2xct
p853
asVDB00536
p854
(lp855
V1kp3
p856
aV1kp2
p857
aV3orh
p858
aV1zx0
p859
aV2k11
p860
aV2e0j
p861
aV1z7x
p862
aV2q4g
p863
aV2e0l
p864
aV3zrt
p865
aV3i4w
p866
aV3k82
p867
aV1kef
p868
aV2mes
p869
aV2f2q
p870
aV1t8a
p871
aV229l
p872
aV3inj
p873
aV1o02
p874
aV3sz9
p875
aV4kwg
p876
aV1o01
p877
aV2cev
p878
aV5cev
p879
aV4cev
p880
aV2pnl
p881
aV3u4f
p882
aV4wqd
p883
aV3eqy
p884
aV2ddz
p885
aV1umj
p886
aV3mv1
p887
aV2gv9
p888
aV1xcl
p889
aV2dpk
p890
asVDB00530
p891
(lp892
V1m17
p893
aV4hjo
p894
aV4s0t
p895
aV1nrl
p896
aV2o9i
p897
aV4j5w
p898
aV1m13
p899
asVDB01326
p900
(lp901
V3ny4
p902
asVDB01321
p903
(lp904
sVDB01147
p905
(lp906
V2hds
p907
aV4kz5
p908
aV4kzb
p909
aV4kz4
p910
aV4e3k
p911
aV3ocn
p912
aV4l0l
p913
aV4fsf
p914
aV3pbs
p915
aV3ocl
p916
asVDB01144
p917
(lp918
V1bzm
p919
aV1czm
p920
aV2nmx
p921
aV1hcb
p922
aV2nn1
p923
aV2pou
p924
aV1znc
p925
aV3f7b
p926
aV3fw3
p927
aV3f7u
p928
aV3ml5
p929
aV3mdz
p930
asVDB00328
p931
(lp932
V1v0x
p933
aV3u8d
p934
aV1kvo
p935
aV1kqu
p936
aV1pod
p937
aV1poe
p938
aV2zb8
p939
aV3adx
p940
aV3ads
p941
aV3w0t
p942
aV3vw9
p943
aV1qip
p944
aV1qin
p945
aV1fro
p946
aV3fo7
p947
aV4eix
p948
aV4iki
p949
aV4ik7
p950
aV3hwz
p951
aV3ib1
p952
aV2alt
p953
aV1s2a
p954
aV3ugr
p955
aV4jq4
p956
aV1ti0
p957
aV2dv8
p958
aV3h1x
p959
aV2oth
p960
aV3ogw
p961
aV4cox
p962
aV4kyk
p963
aV2dm6
p964
asVDB01142
p965
(lp966
V2csa
p967
aV1hll
p968
aV1hof
p969
aV1ho9
p970
aV1hod
p971
aV2cva
p972
aV1i15
p973
aV2you
p974
aV5aer
p975
aV4mqs
p976
aV4mqt
p977
aV1lub
p978
asVDB01628
p979
(lp980
V1v0x
p981
aV3cfl
p982
asVDB01627
p983
(lp984
V4wh5
p985
asVDB00495
p986
(lp987
V4b18
p988
aV3bcr
p989
aV4lhm
p990
aV2jj8
p991
asVDB00320
p992
(lp993
V2g1x
p994
aV1hll
p995
aV1hof
p996
aV1ho9
p997
aV1hod
p998
asVDB00493
p999
(lp1000
V2y2m
p1001
aV2y2o
p1002
aV2y2j
p1003
aV2xd5
p1004
aV2y2k
p1005
aV2c5w
p1006
aV2c6w
p1007
aV2waf
p1008
aV4pm5
p1009
aV4pm7
p1010
aV4pm9
p1011
aV2f50
p1012
aV4kot
p1013
aV3hlw
p1014
asVDB00491
p1015
(lp1016
V3l4w
p1017
asVDB08797
p1018
(lp1019
sVDB01132
p1020
(lp1021
V2xkw
p1022
asVDB01136
p1023
(lp1024
V2lsq
p1025
aV3pds
p1026
aV4gbr
p1027
aV3kj6
p1028
aV2r4r
p1029
aV2r4s
p1030
aV1kat
p1031
aV2fjh
p1032
aV2vpf
p1033
aV3qtk
p1034
aV1vpp
p1035
aV1yk1
p1036
aV2ll2
p1037
aV2l0w
p1038
aV2l1m
p1039
aV2l4r
p1040
aV4hp9
p1041
aV4hqa
p1042
aV1vca
p1043
aV1ij9
p1044
aV1vsc
p1045
aV4amj
p1046
asVDB01137
p1047
(lp1048
V1lwz
p1049
aV4fm9
p1050
aV1zxm
p1051
aV1zxn
p1052
aV4r1f
p1053
asVDB00404
p1054
(lp1055
V4cof
p1056
aV3u5j
p1057
asVDB00406
p1058
(lp1059
V1jtx
p1060
asVDB00148
p1061
(lp1062
V1i0e
p1063
aV1qk1
p1064
aV3dre
p1065
aV3b6r
p1066
aV3drb
p1067
aV2gl6
p1068
aV3orh
p1069
aV1zx0
p1070
aV1v7z
p1071
aV3a6j
p1072
asVDB00889
p1073
(lp1074
V2yme
p1075
asVDB00140
p1076
(lp1077
V1nb9
p1078
aV1hze
p1079
aV1i18
p1080
aV1pkv
p1081
aV1hdo
p1082
aV1he2
p1083
aV1he3
p1084
aV1he4
p1085
aV1he5
p1086
aV2vxa
p1087
aV4kuk
p1088
aV4kuo
p1089
aV2ccb
p1090
aV2cc8
p1091
aV2vx9
p1092
aV4b2k
p1093
aV4b2j
p1094
aV3a35
p1095
aV3a3b
p1096
aV3p5n
p1097
aV4e0f
p1098
aV1bu5
p1099
aV3ddy
p1100
aV4r3a
p1101
aV4r38
p1102
aV4iil
p1103
asVDB00668
p1104
(lp1105
V2lsq
p1106
aV3pds
p1107
aV4gbr
p1108
aV3kj6
p1109
aV2r4r
p1110
aV2r4s
p1111
aV1hll
p1112
aV1hof
p1113
aV1ho9
p1114
aV1hod
p1115
aV2cva
p1116
aV2pah
p1117
aV1mmk
p1118
aV4anp
p1119
aV1mmt
p1120
aV1pah
p1121
aV4a7u
p1122
asVDB00142
p1123
(lp1124
V1kta
p1125
aV1ekf
p1126
aV1ekv
p1127
aV1ekp
p1128
aV2a1h
p1129
aV3uo9
p1130
aV3unw
p1131
aV3voy
p1132
aV3vp1
p1133
aV4o7d
p1134
aV4k87
p1135
aV4k88
p1136
aV4k86
p1137
aV4hvc
p1138
aV1fyj
p1139
aV2qc8
p1140
aV2ojw
p1141
aV3ks9
p1142
aV3ii0
p1143
aV3dyd
p1144
aV2vxo
p1145
aV2vpi
p1146
aV2abj
p1147
aV2coj
p1148
aV2coi
p1149
aV2cog
p1150
aV2nr1
p1151
aV2hqw
p1152
aV3bya
p1153
aV4kx7
p1154
aV4kxd
p1155
aV4kx9
p1156
aV4kx8
p1157
aV4kxa
p1158
aV1s11
p1159
aV1s2s
p1160
aV4k30
p1161
aV2r2n
p1162
aV4geb
p1163
aV2qlr
p1164
aV4ge9
p1165
aV4ge7
p1166
aV3ihj
p1167
aV4bqm
p1168
aV4dyo
p1169
aV3e77
p1170
aV1l1f
p1171
aV1nr1
p1172
aV4mf3
p1173
aV3fv1
p1174
aV3fv2
p1175
aV3fvg
p1176
aV3fvk
p1177
aV3mq4
p1178
aV4ngn
p1179
aV4ngs
p1180
aV4ngm
p1181
aV4ngp
p1182
aV3sjg
p1183
aV2okk
p1184
aV1es0
p1185
aV2okj
p1186
aV3vp6
p1187
aV2wjw
p1188
aV2wjx
p1189
aV3r7x
p1190
aV3rnn
p1191
aV3rn8
p1192
aV2h5g
p1193
aV3qxm
p1194
aV2dbw
p1195
aV4mh5
p1196
asVDB00143
p1197
(lp1198
V1b4q
p1199
aV2obi
p1200
aV2gs3
p1201
aV1qh5
p1202
aV3kij
p1203
aV3cyn
p1204
aV2p31
p1205
aV3qag
p1206
aV3q19
p1207
aV2ht9
p1208
aV2fls
p1209
aV3w0t
p1210
aV3vw9
p1211
aV1qip
p1212
aV1qin
p1213
aV1fro
p1214
aV2pno
p1215
aV3pcv
p1216
aV2uuh
p1217
aV3leo
p1218
aV3b29
p1219
aV3dk8
p1220
aV3dk4
p1221
aV1gra
p1222
aV1gre
p1223
aV1dnc
p1224
aV2hgs
p1225
aV1xw6
p1226
aV1yj6
p1227
aV3rpn
p1228
aV1yzx
p1229
aV3rpp
p1230
aV2vcv
p1231
aV1tdi
p1232
aV3gtu
p1233
aV4edy
p1234
aV4ec0
p1235
aV2vcq
p1236
aV2vcw
p1237
aV2vcz
p1238
aV3ik7
p1239
aV1gul
p1240
aV1gum
p1241
aV4gtu
p1242
aV3gus
p1243
aV3csh
p1244
aV1aqw
p1245
aV13gs
p1246
aV8gss
p1247
aV1eem
p1248
aV3lfl
p1249
aV2f8a
p1250
aV2he3
p1251
aV2c3n
p1252
aV2c3q
p1253
aV2c3t
p1254
aV1fw1
p1255
aV2i3y
p1256
aV2k8v
p1257
aV1sen
p1258
aV2r37
p1259
aV1gse
p1260
aV1pkw
p1261
aV1usb
p1262
aV3i6a
p1263
aV3i69
p1264
aV2wju
p1265
aV4acs
p1266
aV3fcx
p1267
aV4gg2
p1268
aV4gdx
p1269
aV1xw5
p1270
aV3gur
p1271
aV4gf0
p1272
aV4ags
p1273
aV4ivf
p1274
aV4nhz
p1275
aV4grf
p1276
aV4jbb
p1277
aV4hz2
p1278
aV4iw9
p1279
aV4tr1
p1280
aV3wd6
p1281
asVDB00144
p1282
(lp1283
V1r79
p1284
aV3bq7
p1285
aV3iw4
p1286
aV4ra4
p1287
aV4dnl
p1288
aV2eli
p1289
aV1dsy
p1290
aV3bib
p1291
aV3kaa
p1292
asVDB00145
p1293
(lp1294
V2m6b
p1295
aV2m6i
p1296
aV1vry
p1297
aV1zhd
p1298
aV1mot
p1299
aV3imz
p1300
aV4kyo
p1301
aV1h0c
p1302
aV3r9a
p1303
aV4kxk
p1304
aV1bj4
p1305
aV1r74
p1306
aV2azt
p1307
aV4pvf
p1308
aV3ou5
p1309
aV2a7v
p1310
aV5jdw
p1311
aV2zt7
p1312
aV4kr3
p1313
aV2hgs
p1314
aV4mb4
p1315
aV4mb3
p1316
aV4mb5
p1317
aV4wx4
p1318
aV2amy
p1319
aV2q4r
p1320
aV1yft
p1321
aV4cpa
p1322
aV4aea
p1323
aV1uvq
p1324
aV2fnt
p1325
aV4uzu
p1326
aV1ls3
p1327
asVDB00928
p1328
(lp1329
V3swr
p1330
aV3pta
p1331
aV3epz
p1332
aV4qd3
p1333
asVDB00147
p1334
(lp1335
V3fhx
p1336
aV4c5n
p1337
aV2ddw
p1338
aV1td2
p1339
aV3mbh
p1340
aV2z9w
p1341
aV4c5l
p1342
asVDB00390
p1343
(lp1344
V4ret
p1345
aV3b0w
p1346
aV1igj
p1347
aV1igj
p1348
asVDB00396
p1349
(lp1350
V1a28
p1351
aV1qku
p1352
aV3ert
p1353
aV1g50
p1354
aV2ouz
p1355
aV3erd
p1356
aV2aa6
p1357
aV2aa5
p1358
aV1ya3
p1359
aV4nkx
p1360
aV4r21
p1361
aV1dbb
p1362
aV2ar4
p1363
aV2hzq
p1364
aV4bb2
p1365
aV1h60
p1366
aV2aba
p1367
aV4y8w
p1368
aV4j6c
p1369
aV1dbb
p1370
aV2o5y
p1371
aV2o5y
p1372
aV4ltw
p1373
aV4fn9
p1374
asVDB00399
p1375
(lp1376
V4p0v
p1377
aV4p0w
p1378
aV2f8z
p1379
aV3n45
p1380
aV2f9k
p1381
aV2fvi
p1382
aV2q80
p1383
aV3ez3
p1384
aV3ldw
p1385
aV2e91
p1386
aV2her
p1387
aV2q58
p1388
aV3iba
p1389
asVDB00398
p1390
(lp1391
V3hng
p1392
aV1qsv
p1393
aV1qsz
p1394
aV2xac
p1395
aV1flt
p1396
aV1uwh
p1397
aV1uwj
p1398
aV3lb7
p1399
aV3omv
p1400
aV4g0n
p1401
aV1rfa
p1402
aV1c1y
p1403
aV4bsj
p1404
aV4bsk
p1405
aV4asd
p1406
aV3qs9
p1407
aV3qs7
p1408
aV1rjb
p1409
aV4xuf
p1410
aV1lwp
p1411
aV3mjg
p1412
aV2l6w
p1413
aV1gq5
p1414
aV2pld
p1415
aV2e9w
p1416
aV2ec8
p1417
aV1qzj
p1418
aV1qzk
p1419
aV1r01
p1420
aV3ky2
p1421
aV4rwk
p1422
aV3tt0
p1423
aV4rwi
p1424
aV3kxx
p1425
aV4ux8
p1426
aV1xpd
p1427
aV4ckj
p1428
aV4cki
p1429
aV2ivs
p1430
aV3rgf
p1431
aV3heg
p1432
aV3gcs
p1433
asVDB04794
p1434
(lp1435
V3ibd
p1436
aV4i91
p1437
aV4rql
p1438
aV3ua5
p1439
aV4rrt
p1440
aV2bdm
p1441
asVDB00715
p1442
(lp1443
V4mqs
p1444
aV4mqt
p1445
aV1lub
p1446
aV2csa
p1447
aV4jlt
p1448
aV4l9i
p1449
asVDB00242
p1450
(lp1451
V1m73
p1452
aV1pf7
p1453
aV1v2h
p1454
aV3d1v
p1455
aV1ula
p1456
aV3hnd
p1457
aV3hne
p1458
aV3hnf
p1459
aV3hnc
p1460
aV2wgh
p1461
aV3olj
p1462
aV3vpn
p1463
aV3vpo
p1464
aV3vpm
p1465
aV2iyh
p1466
aV4djn
p1467
aV3hf1
p1468
aV2vux
p1469
aV4qcl
p1470
aV4q5v
p1471
aV4y97
p1472
aV1n5g
p1473
aV1k0p
p1474
aV2v6z
p1475
aV2zi9
p1476
aV2zia
p1477
asVDB00717
p1478
(lp1479
V1sqn
p1480
asVDB00710
p1481
(lp1482
V2f94
p1483
aV4umj
p1484
asVDB00713
p1485
(lp1486
V2c5w
p1487
aV2c6w
p1488
aV2waf
p1489
aV2y2m
p1490
aV2y2o
p1491
aV2y2j
p1492
aV2xd5
p1493
aV2y2k
p1494
aV4eyb
p1495
asVDB00712
p1496
(lp1497
V1v0x
p1498
aV1dvt
p1499
aV2ayl
p1500
aV3n8w
p1501
aV3n8z
p1502
aV1cqe
p1503
aV1eqh
p1504
aV1r9o
p1505
aV4for
p1506
aV4jtq
p1507
aV3pgh
p1508
asVDB00759
p1509
(lp1510
V3izv
p1511
aV3izw
p1512
aV3j00
p1513
aV3j0u
p1514
aV3j0v
p1515
aV3izv
p1516
aV3izw
p1517
aV3j00
p1518
aV3j0u
p1519
aV3j0v
p1520
aV3izv
p1521
aV3izw
p1522
aV3j00
p1523
aV3j0u
p1524
aV3j0v
p1525
aV4tp8
p1526
aV4tpa
p1527
aV4tpc
p1528
aV4tpe
p1529
aV4kiy
p1530
aV3izv
p1531
aV3izw
p1532
aV3j00
p1533
aV3j0u
p1534
aV3j0v
p1535
aV2lsb
p1536
aV2kun
p1537
aV2lej
p1538
aV2lft
p1539
aV2lv1
p1540
aV2vke
p1541
aV2trt
p1542
aV4b3a
p1543
aV2hcj
p1544
aV2hdn
p1545
aV3q5p
p1546
asVDB00812
p1547
(lp1548
V1v0x
p1549
aV2iag
p1550
aV3b6h
p1551
aV2bxq
p1552
asVDB00811
p1553
(lp1554
V1jcn
p1555
aV1bx4
p1556
aV2i6a
p1557
aV2i6b
p1558
aV4o1l
p1559
aV2j2c
p1560
aV2xcw
p1561
aV4h4b
p1562
aV2jc9
p1563
aV2xcx
p1564
aV2ys0
p1565
aV3sfu
p1566
aV4pb1
p1567
asVDB00814
p1568
(lp1569
V1v0x
p1570
aV4o1z
p1571
aV4m11
p1572
asVDB00818
p1573
(lp1574
V4cof
p1575
aV4jpz
p1576
aV2kav
p1577
aV3f33
p1578
aV3p50
p1579
asVDB00819
p1580
(lp1581
V1azm
p1582
aV3w6h
p1583
aV4lu3
p1584
aV3hs4
p1585
aV3v2m
p1586
aV3v2j
p1587
aV4g0c
p1588
aV2h4n
p1589
aV2hfx
p1590
aV3uyq
p1591
aV2hfy
p1592
aV3uyn
p1593
aV1z93
p1594
aV1znc
p1595
aV3f7b
p1596
aV3fw3
p1597
aV3f7u
p1598
aV3ml5
p1599
aV4csk
p1600
aV1fqy
p1601
aV1h6i
p1602
aV1hw0
p1603
aV1ih5
p1604
aV2xtk
p1605
aV4g7a
p1606
aV4uov
p1607
aV1jd0
p1608
aV1dmy
p1609
aV2uy4
p1610
aV3iai
p1611
aV4xiw
p1612
aV3czv
p1613
aV3ucj
p1614
asVDB04868
p1615
(lp1616
V3cs9
p1617
aV2e9w
p1618
aV2ec8
p1619
aV1qzj
p1620
aV1qzk
p1621
aV1r01
p1622
aV3gp0
p1623
asVDB04942
p1624
(lp1625
V3a9e
p1626
aV3kmr
p1627
aV4dqm
p1628
aV1dkf
p1629
aV3kmz
p1630
aV4dm6
p1631
aV4jyi
p1632
aV4dm8
p1633
aV4jyg
p1634
aV4jyh
p1635
aV2cbr
p1636
asVDB04865
p1637
(lp1638
V1vq8
p1639
aV1vqo
p1640
aV1vqp
p1641
aV1vqk
p1642
aV1vql
p1643
aV3j3b
p1644
asVDB05812
p1645
(lp1646
V3swz
p1647
aV4nkv
p1648
aV4nkx
p1649
aV3ruk
p1650
aV4nkw
p1651
asVDB01764
p1652
(lp1653
V1mrl
p1654
aV2z2p
p1655
asVDB00951
p1656
(lp1657
V2h7i
p1658
aV2h7m
p1659
aV2h7l
p1660
aV2h7p
p1661
aV2h7n
p1662
aV1w6f
p1663
aV2v2e
p1664
aV1xr3
p1665
aV3u72
p1666
aV3i6n
p1667
aV2vcf
p1668
aV2vcn
p1669
aV2vcs
p1670
asVDB00866
p1671
(lp1672
V2lsq
p1673
aV3pds
p1674
aV4gbr
p1675
aV3kj6
p1676
aV2r4r
p1677
aV2r4s
p1678
asVDB01361
p1679
(lp1680
V2zjr
p1681
aV1jzx
p1682
aV1nkw
p1683
aV4io9
p1684
aV4ioa
p1685
aV4tp9
p1686
aV4tpb
p1687
aV4tpd
p1688
aV4tpf
p1689
aV4kix
p1690
asVDB00864
p1691
(lp1692
V1fkf
p1693
aV1fkj
p1694
aV2fke
p1695
aV1bkf
p1696
aV4odr
p1697
aV3ihz
p1698
aV1yat
p1699
aV4nnr
p1700
aV1q6i
p1701
aV1tco
p1702
aV4lax
p1703
aV3vaw
p1704
aV3o5r
p1705
aV3uf8
p1706
aV4dz2
p1707
aV4dz3
p1708
aV3uqb
p1709
aV4odo
p1710
asVDB01367
p1711
(lp1712
V2xfq
p1713
aV1g5o
p1714
aV1gjh
p1715
aV1ysw
p1716
aV2o21
p1717
aV2o22
p1718
asVDB00862
p1719
(lp1720
V1uho
p1721
aV1xp0
p1722
aV3b2r
p1723
asVDB00861
p1724
(lp1725
V1v0x
p1726
aV4i89
p1727
aV3d2t
p1728
aV2bxe
p1729
asVDB01082
p1730
(lp1731
V4tp8
p1732
aV4tpa
p1733
aV4tpc
p1734
aV4tpe
p1735
aV4kiy
p1736
aV4ejw
p1737
aV3hav
p1738
asVDB01087
p1739
(lp1740
V4fgj
p1741
asVDB00869
p1742
(lp1743
V4m2u
p1744
aV1cil
p1745
aV4k13
p1746
aV4m2w
p1747
aV3fw3
p1748
aV1bzm
p1749
aV1czm
p1750
aV2nmx
p1751
aV1hcb
p1752
aV2nn1
p1753
asVDB01085
p1754
(lp1755
V2csa
p1756
aV4mqs
p1757
aV4mqt
p1758
aV1lub
p1759
asVDB01248
p1760
(lp1761
V1g5o
p1762
aV1gjh
p1763
aV1ysw
p1764
aV2o21
p1765
aV2o22
p1766
aV1i8h
p1767
aV4e0n
p1768
aV4e0m
p1769
aV4e0o
p1770
aV1ia0
p1771
aV1tub
p1772
asVDB01244
p1773
(lp1774
V3bxk
p1775
aV4v0c
p1776
aV4umo
p1777
aV3bj4
p1778
aV3hfe
p1779
aV1lxf
p1780
aV4djc
p1781
aV2jzi
p1782
aV2k0e
p1783
aV2kne
p1784
aV2l53
p1785
aV4npv
p1786
aV4npw
p1787
aV1taz
p1788
aV1lxr
p1789
aV1lxq
p1790
aV1dtl
p1791
asVDB01245
p1792
(lp1793
V4bdt
p1794
aV1clj
p1795
aV1puv
p1796
aV1puw
p1797
aV2x8b
p1798
aV1acl
p1799
aV1maa
p1800
aV2xud
p1801
aV3mes
p1802
asVDB01421
p1803
(lp1804
V2vqe
p1805
aV2j00
p1806
aV2j02
p1807
aV2uua
p1808
aV2uub
p1809
aV4qb9
p1810
aV2vqy
p1811
asVDB01242
p1812
(lp1813
V2a2r
p1814
aV3gus
p1815
aV3csh
p1816
aV3dgq
p1817
aV2a2s
p1818
aV2q6h
p1819
aV2qei
p1820
aV4mma
p1821
asVDB01065
p1822
(lp1823
V2qwx
p1824
aV2qx4
p1825
aV2qx6
p1826
aV1qku
p1827
aV3ert
p1828
aV1g50
p1829
aV2ouz
p1830
aV3erd
p1831
aV4djc
p1832
aV2jzi
p1833
aV2k0e
p1834
aV2kne
p1835
aV2l53
p1836
aV3f9p
p1837
aV1d2v
p1838
aV1cxp
p1839
aV1dnu
p1840
aV1d5l
p1841
aV3pow
p1842
aV3pos
p1843
aV4a6d
p1844
aV4a6e
p1845
asVDB00599
p1846
(lp1847
V3qxm
p1848
aV2gvt
p1849
aV2lly
p1850
aV2maw
p1851
aV2wjw
p1852
aV2wjx
p1853
aV3r7x
p1854
aV3rnn
p1855
aV3rn8
p1856
aV3rd0
p1857
asVDB01060
p1858
(lp1859
V3n7w
p1860
asVDB01103
p1861
(lp1862
V1cjy
p1863
aV1rlw
p1864
aV1bci
p1865
asVDB00592
p1866
(lp1867
V4cof
p1868
aV3qf1
p1869
asVDB05521
p1870
(lp1871
V3sv6
p1872
aV3sv8
p1873
aV3sv7
p1874
aV3sv9
p1875
asVDB08800
p1876
(lp1877
V2ra7
p1878
asVDB00595
p1879
(lp1880
V3izv
p1881
aV3izw
p1882
aV3j00
p1883
aV3j0u
p1884
aV3j0v
p1885
aV4tp8
p1886
aV4tpa
p1887
aV4tpc
p1888
aV4tpe
p1889
aV4kiy
p1890
aV2xpw
p1891
asVDB00594
p1892
(lp1893
V2m3o
p1894
aV3hi7
p1895
aV3hig
p1896
aV3hii
p1897
aV3mph
p1898
aV3k5t
p1899
aV2ygg
p1900
aV2mdf
p1901
aV2e30
p1902
aV1y4e
p1903
aV2kbv
p1904
aV1f5l
p1905
aV4ntx
p1906
asVDB06335
p1907
(lp1908
V3bjm
p1909
asVDB02300
p1910
(lp1911
V1s19
p1912
asVDB00563
p1913
(lp1914
V1kmv
p1915
aV3fs6
p1916
aV3ghw
p1917
aV3ntz
p1918
aV3nu0
p1919
aV4ocx
p1920
aV2inq
p1921
aV4ocx
p1922
asVDB00560
p1923
(lp1924
V3izv
p1925
aV3izw
p1926
aV3j00
p1927
aV3j0u
p1928
aV3j0v
p1929
aV4tp8
p1930
aV4tpa
p1931
aV4tpc
p1932
aV4tpe
p1933
aV4kiy
p1934
aV3izv
p1935
aV3izw
p1936
aV3j00
p1937
aV3j0u
p1938
aV3j0v
p1939
aV3izv
p1940
aV3izw
p1941
aV3j00
p1942
aV3j0u
p1943
aV3j0v
p1944
aV3izv
p1945
aV3izw
p1946
aV3j00
p1947
aV3j0u
p1948
aV3j0v
p1949
aV4abz
p1950
aV4a6n
p1951
aV3v3o
p1952
asVDB00445
p1953
(lp1954
V4b4c
p1955
aV2b2w
p1956
aV4o42
p1957
aV4nw2
p1958
aV2b2t
p1959
aV1lwz
p1960
aV4fm9
p1961
aV1zxm
p1962
aV1zxn
p1963
aV4r1f
p1964
asVDB00444
p1965
(lp1966
V1lwz
p1967
aV4fm9
p1968
aV1zxm
p1969
aV1zxn
p1970
aV4r1f
p1971
asVDB00446
p1972
(lp1973
V4tp9
p1974
aV4tpb
p1975
aV4tpd
p1976
aV4tpf
p1977
aV4kix
p1978
aV1usq
p1979
aV2jkl
p1980
aV2jkj
p1981
aV1ok3
p1982
aV1ojv
p1983
aV1ojw
p1984
aV1ok2
p1985
aV1ojy
p1986
aV3cla
p1987
aV4cla
p1988
aV1cla
p1989
aV2xat
p1990
aV3u9f
p1991
aV1qhy
p1992
aV1qhs
p1993
aV2uxp
p1994
aV4oad
p1995
aV4oae
p1996
asVDB00441
p1997
(lp1998
V3hnd
p1999
aV3hne
p2000
aV3hnf
p2001
aV3hnc
p2002
aV2wgh
p2003
aV1hvy
p2004
aV1ju6
p2005
aV1juj
p2006
aV3gg5
p2007
aV3ejl
p2008
aV1tev
p2009
aV4pd5
p2010
aV2vpp
p2011
asVDB00440
p2012
(lp2013
V1hvy
p2014
aV1ju6
p2015
aV1juj
p2016
aV3gg5
p2017
aV3ejl
p2018
aV2w3a
p2019
aV3s3v
p2020
aV3n0h
p2021
aV2w3v
p2022
aV2w9h
p2023
aV2w9g
p2024
aV3fre
p2025
aV3frb
p2026
aV2w9s
p2027
aV1dyr
p2028
aV4g8z
p2029
aV4km2
p2030
aV1dg5
p2031
aV2bfm
p2032
aV3fl9
p2033
aV3jw3
p2034
aV3jw5
p2035
aV3tq8
p2036
asVDB00141
p2037
(lp2038
V2ch5
p2039
aV2agd
p2040
aV4ee4
p2041
aV4eea
p2042
aV3ee5
p2043
aV4ee5
p2044
aV4xq5
p2045
aV4xqu
p2046
aV4xqo
p2047
aV4onh
p2048
aV4jum
p2049
aV4jgj
p2050
aV3san
p2051
aV3ti8
p2052
aV4f7e
p2053
aV3wh9
p2054
aV2gfi
p2055
aV3em5
p2056
aV4m44
p2057
aV4m40
p2058
asVDB01426
p2059
(lp2060
V4dck
p2061
aV4ovn
p2062
aV4jq0
p2063
aV2kbi
p2064
aV2l53
p2065
aV1zr8
p2066
aV2que
p2067
aV3cbi
p2068
aV3fg5
p2069
asVDB01409
p2070
(lp2071
V2csa
p2072
aV4mqs
p2073
aV4mqt
p2074
aV1lub
p2075
aV4u15
p2076
asVDB00500
p2077
(lp2078
V1v0x
p2079
asVDB01614
p2080
(lp2081
V1i15
p2082
aV2you
p2083
aV5aer
p2084
aV1oz5
p2085
asVDB00218
p2086
(lp2087
V1lwz
p2088
aV4fm9
p2089
aV1zxm
p2090
aV1zxn
p2091
aV4r1f
p2092
aV2xkk
p2093
asVDB00963
p2094
(lp2095
V1v0x
p2096
aV4mjq
p2097
asVDB00966
p2098
(lp2099
V1zv0
p2100
aV3vn2
p2101
asVDB00212
p2102
(lp2103
V3d91
p2104
asVDB00741
p2105
(lp2106
V4p6x
p2107
aV1ain
p2108
aV1bo9
p2109
aV1qls
p2110
aV4c49
p2111
aV2vdy
p2112
aV2v95
p2113
asVDB01586
p2114
(lp2115
V1ihi
p2116
asVDB02546
p2117
(lp2118
V4bkx
p2119
aV1tyi
p2120
aV4lxz
p2121
aV4a69
p2122
aV3c5k
p2123
aV3phd
p2124
aV3gv4
p2125
aV4qa0
p2126
aV1t69
p2127
aV4qa2
p2128
aV1c3s
p2129
aV4bz6
p2130
aV1zz1
p2131
aV2pqo
p2132
aV3c0z
p2133
asVDB00146
p2134
(lp2135
V1ie9
p2136
aV3a40
p2137
aV3p8x
p2138
aV3a3z
p2139
aV3a78
p2140
aV1mz9
p2141
asVDB00690
p2142
(lp2143
V4cof
p2144
asVDB00693
p2145
(lp2146
V1flr
p2147
aV1n0s
p2148
aV2nmv
p2149
aV1t66
p2150
aV1flr
p2151
aV1x9q
p2152
asVDB00694
p2153
(lp2154
V1lwz
p2155
aV4fm9
p2156
aV1zxm
p2157
aV1zxn
p2158
aV4r1f
p2159
aV3qx3
p2160
aV4j3n
p2161
aV4g0w
p2162
aV4g0v
p2163
aV4g0u
p2164
aV3f8f
p2165
asVDB00695
p2166
(lp2167
V1z9y
p2168
aV3rf4
p2169
aV2xn5
p2170
asVDB00696
p2171
(lp2172
V2g1x
p2173
aV1i15
p2174
aV2you
p2175
aV5aer
p2176
aV1hll
p2177
aV1hof
p2178
aV1ho9
p2179
aV1hod
p2180
aV2cva
p2181
asVDB00722
p2182
(lp2183
V2c6n
p2184
aV1o86
p2185
aV1r42
p2186
aV2ajf
p2187
aV3sci
p2188
aV1r4l
p2189
aV3scj
p2190
aV2x91
p2191
aV1j36
p2192
asVDB00367
p2193
(lp2194
V3d90
p2195
aV1qku
p2196
aV3ert
p2197
aV1g50
p2198
aV2ouz
p2199
aV3erd
p2200
aV1xj7
p2201
aV1t65
p2202
aV2am9
p2203
aV2pit
p2204
aV1t63
p2205
aV1lhv
p2206
asVDB00368
p2207
(lp2208
V4pah
p2209
aV1hll
p2210
aV1hof
p2211
aV1ho9
p2212
aV1hod
p2213
aV2cva
p2214
aV2lsq
p2215
aV3pds
p2216
aV4gbr
p2217
aV3kj6
p2218
aV2r4r
p2219
aV2r4s
p2220
aV2cdw
p2221
aV3hcd
p2222
aV3dye
p2223
aV2qeo
p2224
asVDB00369
p2225
(lp2226
V1yyp
p2227
aV3eor
p2228
asVDB00131
p2229
(lp2230
V4rer
p2231
aV4rew
p2232
aV4red
p2233
aV4rer
p2234
aV2f15
p2235
aV4rew
p2236
aV2y94
p2237
aV2v8q
p2238
aV2jjk
p2239
aV2y5k
p2240
aV2vt5
p2241
aV2y5l
p2242
aV2wbb
p2243
aV1bx4
p2244
aV2i6a
p2245
aV2i6b
p2246
aV4o1l
p2247
aV2lxt
p2248
aV4k18
p2249
aV1xqz
p2250
aV1xr1
p2251
aV3f2a
p2252
aV3jy0
p2253
aV4wzi
p2254
aV4x0f
p2255
aV3g45
p2256
aV3hmv
p2257
aV1f0j
p2258
aV1fa9
p2259
aV3dds
p2260
aV3ddw
p2261
aV3dd1
p2262
aV2qll
p2263
aV4cff
p2264
aV4cfe
p2265
aV3tw2
p2266
aV4eqe
p2267
aV4eqg
p2268
aV4eqh
p2269
aV1kpe
p2270
aV3g58
p2271
aV1oyn
p2272
aV2fm0
p2273
aV2fm5
p2274
aV1rko
p2275
asVDB00133
p2276
(lp2277
V4l3v
p2278
aV4l0d
p2279
aV4coo
p2280
aV4l28
p2281
aV4l27
p2282
aV1p5j
p2283
aV4h27
p2284
aV3l6b
p2285
aV3l6r
p2286
aV4l87
p2287
aV3vbb
p2288
aV3imz
p2289
aV4kyo
p2290
aV1h0c
p2291
aV3r9a
p2292
aV4kxk
p2293
aV3awo
p2294
aV1pb8
p2295
aV4d9n
p2296
aV2v3u
p2297
aV2rcb
p2298
aV4d97
p2299
aV2rc8
p2300
asVDB00132
p2301
(lp2302
V1fk6
p2303
aV2byo
p2304
aV4e1g
p2305
asVDB00135
p2306
(lp2307
V2xsn
p2308
aV2pid
p2309
aV3zxi
p2310
aV4qbt
p2311
aV3dyd
p2312
aV4p6r
p2313
aV3mo4
p2314
aV2cyb
p2315
aV3o7b
p2316
aV2ypp
p2317
aV2ypq
p2318
aV2cyc
p2319
aV3ggg
p2320
aV1ycp
p2321
aV2qaa
p2322
aV1tyb
p2323
aV1tyd
p2324
aV1tya
p2325
aV4ts1
p2326
asVDB00137
p2327
(lp2328
V3pl9
p2329
aV1rwt
p2330
aV4lcz
p2331
aV1yo9
p2332
aV4rku
p2333
aV4rku
p2334
asVDB00136
p2335
(lp2336
V3a78
p2337
asVDB00139
p2338
(lp2339
V3o2g
p2340
aV4bg1
p2341
aV4bhi
p2342
aV4bgk
p2343
aV4c5w
p2344
aV4bta
p2345
aV4bt9
p2346
aV4btb
p2347
aV2yq8
p2348
aV4bt8
p2349
aV2w8q
p2350
aV3dlx
p2351
aV4oa4
p2352
aV3wcx
p2353
aV4mcw
p2354
aV4me4
p2355
aV4mdz
p2356
aV4awr
p2357
aV4ew7
p2358
aV4ovs
p2359
aV4ha4
p2360
aV3zha
p2361
aV4g7v
p2362
aV3r5c
p2363
asVDB06203
p2364
(lp2365
V3g0b
p2366
asVDB00919
p2367
(lp2368
V4tp8
p2369
aV4tpa
p2370
aV4tpc
p2371
aV4tpe
p2372
aV4kiy
p2373
asVDB00917
p2374
(lp2375
V3wfh
p2376
aV3wfh
p2377
asVDB00916
p2378
(lp2379
V3qdl
p2380
aV3c8y
p2381
aV1feh
p2382
aV1c4a
p2383
aV1c4c
p2384
aV1w3r
p2385
asVDB00915
p2386
(lp2387
V1i15
p2388
aV2you
p2389
aV5aer
p2390
aV3c9j
p2391
asVDB00675
p2392
(lp2393
V1qku
p2394
aV3ert
p2395
aV1g50
p2396
aV2ouz
p2397
aV3erd
p2398
aV3oll
p2399
aV1l2j
p2400
aV1u3r
p2401
aV1nde
p2402
aV1qkm
p2403
asVDB00756
p2404
(lp2405
V1f0x
p2406
aV1l1f
p2407
aV1nr1
p2408
aV3ete
p2409
asVDB00625
p2410
(lp2411
V1ikw
p2412
aV1ikv
p2413
aV1jkh
p2414
aV1fko
p2415
aV4b3o
p2416
aV1fk9
p2417
asVDB00624
p2418
(lp2419
V2am9
p2420
aV3zqt
p2421
aV2ylo
p2422
aV2yhd
p2423
aV2ylp
p2424
aV1afs
p2425
aV1q13
p2426
aV4j6d
p2427
aV1i9j
p2428
aV1l7s
p2429
aV1l7s
p2430
aV1vpo
p2431
aV1vpo
p2432
aV3kdm
p2433
asVDB00627
p2434
(lp2435
V2jbm
p2436
aV3lar
p2437
aV4kww
p2438
aV4kwv
p2439
aV3rod
p2440
aV2iip
p2441
aV3o14
p2442
aV3r2j
p2443
aV2wt9
p2444
aV2xrh
p2445
aV3ci8
p2446
aV1icr
p2447
aV1icu
p2448
aV1icv
p2449
aV3war
p2450
aV3hrd
p2451
aV3i45
p2452
aV2f7f
p2453
asVDB00188
p2454
(lp2455
V4r3o
p2456
aV4r3o
p2457
aV4r3o
p2458
aV4fwd
p2459
aV4qvp
p2460
aV4qvy
p2461
aV4qvq
p2462
aV4qvl
p2463
aV4qvm
p2464
asVDB00974
p2465
(lp2466
V3wfa
p2467
aV1zlq
p2468
aV1nnf
p2469
aV2axn
p2470
aV3l7k
p2471
aV3l7m
p2472
aV4oes
p2473
aV3rnj
p2474
asVDB00184
p2475
(lp2476
V2asg
p2477
aV2gvt
p2478
aV2lly
p2479
aV2maw
p2480
aV2gvt
p2481
aV2ksr
p2482
aV2lm2
p2483
aV2k58
p2484
aV2k59
p2485
aV2asg
p2486
aV4uxu
p2487
aV4d01
p2488
aV4uy2
p2489
aV4ejj
p2490
aV1ol8
p2491
aV1uw6
p2492
aV4ejg
p2493
aV2yk1
p2494
aV2yk1
p2495
asVDB00181
p2496
(lp2497
V4ms4
p2498
aV4f12
p2499
aV4f11
p2500
aV4ms4
p2501
aV4ms3
p2502
aV4mr7
p2503
asVDB00182
p2504
(lp2505
V1hy9
p2506
asVDB00976
p2507
(lp2508
sVDB00203
p2509
(lp2510
V2h42
p2511
aV1udt
p2512
aV1tbf
p2513
aV3jwq
p2514
asVDB00615
p2515
(lp2516
V4kn7
p2517
aV4igc
p2518
aV4kmu
p2519
aV4jk1
p2520
aV4kn4
p2521
aV4mex
p2522
aV4mey
p2523
aV4kn7
p2524
aV4igc
p2525
aV4kmu
p2526
aV3iyd
p2527
aV3lu0
p2528
aV4kn7
p2529
aV4igc
p2530
aV4kmu
p2531
aV3q6m
p2532
aV3q6n
p2533
aV2xjx
p2534
aV4egi
p2535
aV3r4p
p2536
aV4nh9
p2537
aV4cp3
p2538
aV2a68
p2539
asVDB01200
p2540
(lp2541
V2g1x
p2542
aV1oz5
p2543
aV1i15
p2544
aV2you
p2545
aV5aer
p2546
aV1hll
p2547
aV1hof
p2548
aV1ho9
p2549
aV1hod
p2550
aV2cva
p2551
aV3ua1
p2552
asVDB01201
p2553
(lp2554
V2a69
p2555
asVDB00829
p2556
(lp2557
V4cof
p2558
aV2bxf
p2559
asVDB00987
p2560
(lp2561
V1tv9
p2562
aV1bpx
p2563
aV1bpz
p2564
aV1tva
p2565
aV3rje
p2566
aV4lwr
p2567
aV1p5z
p2568
asVDB01204
p2569
(lp2570
V1lwz
p2571
aV4fm9
p2572
aV1zxm
p2573
aV1zxn
p2574
aV4r1f
p2575
aV2fum
p2576
asVDB00821
p2577
(lp2578
V1v0x
p2579
aV4mjr
p2580
aV4do3
p2581
asVDB00820
p2582
(lp2583
V1udu
p2584
aV1xoz
p2585
asVDB00988
p2586
(lp2587
V1i15
p2588
aV2you
p2589
aV5aer
p2590
aV1oz5
p2591
aV5pah
p2592
aV4a7v
p2593
aV2a3r
p2594
aV2qmz
p2595
aV2vq5
p2596
aV3nk2
p2597
asVDB06616
p2598
(lp2599
V2v7o
p2600
aV2ux0
p2601
aV1k1f
p2602
aV3ue4
p2603
aV3a4o
p2604
aV1w1f
p2605
aV1wa7
p2606
aV1qcf
p2607
aV1ad5
p2608
aV2hck
p2609
aV3vs3
p2610
aV3vs6
p2611
aV4mxo
p2612
aV4mxx
p2613
aV4mxy
p2614
aV4mxz
p2615
aV4gcj
p2616
aV3pxz
p2617
aV4kd1
p2618
aV1ykr
p2619
aV2exm
p2620
aV3w8q
p2621
aV3eqi
p2622
aV3eqd
p2623
aV3zls
p2624
aV3eqh
p2625
aV1s9i
p2626
aV4h3q
p2627
aV2cu1
p2628
aV2npt
p2629
aV5ajq
p2630
aV4otw
p2631
aV3soa
p2632
asVDB01022
p2633
(lp2634
V2wsc
p2635
aV3lw5
p2636
aV2wse
p2637
aV2wsf
p2638
aV1yo9
p2639
aV1jb0
p2640
aV4fe1
p2641
aV3pcq
p2642
aV4kt0
p2643
aV4l6v
p2644
aV
asVDB01023
p2645
(lp2646
V1lxq
p2647
aV2aax
p2648
aV2aa6
p2649
aV2ab2
p2650
aV3wff
p2651
aV2aa5
p2652
aV2jt0
p2653
aV2jt3
p2654
aV2jt8
p2655
aV2jtz
p2656
aV1j1d
p2657
aV3g43
p2658
aV3oxq
p2659
aV2be6
p2660
aV2lqc
p2661
aV2f3z
p2662
aV2vay
p2663
aV4djc
p2664
aV2jzi
p2665
aV2k0e
p2666
aV2kne
p2667
aV2l53
p2668
aV4npv
p2669
aV4npw
p2670
aV1taz
p2671
aV1lxr
p2672
aV2nnj
p2673
asVDB01024
p2674
(lp2675
V1jcn
p2676
aV1nf7
p2677
aV1nfb
p2678
aV1b3o
p2679
aV4af0
p2680
aV1jr1
p2681
aV1me7
p2682
aV1meh
p2683
aV1mei
p2684
aV4fxs
p2685
aV4fo4
p2686
asVDB01025
p2687
(lp2688
V2wcb
p2689
aV2m9g
p2690
aV1odb
p2691
aV2wcf
p2692
aV2wce
p2693
aV2kot
p2694
aV1jli
p2695
aV1ry7
p2696
aV3ojm
p2697
aV3ba4
p2698
aV1rg8
p2699
aV4qal
p2700
aV4wbo
p2701
asVDB01026
p2702
(lp2703
V2j0c
p2704
asVDB00482
p2705
(lp2706
V1v0x
p2707
aV2biy
p2708
aV4rqv
p2709
aV4aw1
p2710
aV1h1w
p2711
aV1uvr
p2712
aV3kk6
p2713
aV4fim
p2714
aV3ln1
p2715
asVDB00529
p2716
(lp2717
V1yyp
p2718
aV2rk8
p2719
aV4mv7
p2720
aV3kd5
p2721
aV1ei6
p2722
aV3t01
p2723
aV1nki
p2724
asVDB00523
p2725
(lp2726
V3a9e
p2727
aV3kmr
p2728
aV4dqm
p2729
aV1dkf
p2730
aV3kmz
p2731
aV1fm9
p2732
aV4dm6
p2733
aV4jyi
p2734
aV4dm8
p2735
aV4jyg
p2736
aV4jyh
p2737
aV1uhl
p2738
aV1h9u
p2739
aV2lbd
p2740
aV3lbd
p2741
aV4lbd
p2742
aV1exa
p2743
aV1exx
p2744
aV2gl8
p2745
asVDB00526
p2746
(lp2747
V4ppo
p2748
asVDB01336
p2749
(lp2750
V4mqs
p2751
aV4mqt
p2752
aV1lub
p2753
aV3peo
p2754
asVDB01331
p2755
(lp2756
V2c5w
p2757
aV2c6w
p2758
aV2waf
p2759
aV3ita
p2760
aV3it9
p2761
aV3itb
p2762
aV3mzf
p2763
aV1z6f
p2764
aV3mzd
p2765
aV3beb
p2766
aV3bec
p2767
aV2ex2
p2768
aV2ex8
p2769
aV2ex6
p2770
aV2exb
p2771
aV2exa
p2772
aV3vma
p2773
aV3fwl
p2774
aV3fwm
p2775
aV2y2m
p2776
aV2y2o
p2777
aV2y2j
p2778
aV2xd5
p2779
aV2y2k
p2780
asVDB00319
p2781
(lp2782
V2waf
p2783
aV2y2m
p2784
aV2y2o
p2785
aV2y2j
p2786
aV2xd5
p2787
aV2y2k
p2788
aV3q07
p2789
asVDB01157
p2790
(lp2791
V1kmv
p2792
aV3fs6
p2793
aV3ghw
p2794
aV3ntz
p2795
aV3nu0
p2796
aV2x9v
p2797
aV1bzf
p2798
aV4m2x
p2799
aV3clb
p2800
aV3hbb
p2801
asVDB01151
p2802
(lp2803
V4mqs
p2804
aV4mqt
p2805
aV1lub
p2806
aV2csa
p2807
aV2qb4
p2808
aV2qju
p2809
aV3pds
p2810
aV4gbr
p2811
aV3kj6
p2812
aV2r4r
p2813
aV2r4s
p2814
aV2lsq
p2815
aV1x9o
p2816
asVDB00311
p2817
(lp2818
V1bzm
p2819
aV1czm
p2820
aV2nmx
p2821
aV1hcb
p2822
aV2nn1
p2823
aV3dd0
p2824
aV3caj
p2825
aV3dcw
p2826
aV1znc
p2827
aV3f7b
p2828
aV3fw3
p2829
aV3f7u
p2830
aV3mdz
p2831
asVDB00310
p2832
(lp2833
sVDB00313
p2834
(lp2835
V2jif
p2836
aV2w8p
p2837
aV2w8q
p2838
aV2w8r
p2839
aV2w8n
p2840
aV2w8o
p2841
asVDB00312
p2842
(lp2843
V3qxm
p2844
aV2gvt
p2845
aV2lly
p2846
aV2maw
p2847
aV2wjw
p2848
aV2wjx
p2849
aV3r7x
p2850
aV3rnn
p2851
aV3rn8
p2852
aV3rav
p2853
asVDB01656
p2854
(lp2855
V3g4l
p2856
aV1xoq
p2857
aV2qyk
p2858
aV3tvx
p2859
aV3i8v
p2860
aV1xmu
p2861
aV1lxu
p2862
aV2qym
p2863
asVDB00317
p2864
(lp2865
V2itz
p2866
aV2ito
p2867
aV2ity
p2868
aV3ug2
p2869
aV4i22
p2870
asVDB00316
p2871
(lp2872
V1v0x
p2873
aV1tyl
p2874
aV1tym
p2875
aV2ocu
p2876
aV4a9j
p2877
aV2dpz
p2878
aV3py4
p2879
aV4gn6
p2880
aV4a9k
p2881
aV4cut
p2882
asVDB04711
p2883
(lp2884
sVDB00249
p2885
(lp2886
sVDB00417
p2887
(lp2888
V2ex9
p2889
aV2z71
p2890
asVDB00415
p2891
(lp2892
V2y2m
p2893
aV2y2o
p2894
aV2y2j
p2895
aV2xd5
p2896
aV2y2k
p2897
aV2c5w
p2898
aV2c6w
p2899
aV2waf
p2900
aV4gcp
p2901
aV2ex6
p2902
aV2rdd
p2903
aV3ndv
p2904
aV3kp3
p2905
aV1nx9
p2906
aV1h8s
p2907
asVDB00412
p2908
(lp2909
V3dzy
p2910
aV1zgy
p2911
aV1fm6
p2912
aV2prg
p2913
aV3cs8
p2914
asVDB00410
p2915
(lp2916
V1ffy
p2917
aV1qu2
p2918
aV1qu3
p2919
aV1jzs
p2920
asVDB00795
p2921
(lp2922
V2abv
p2923
aV3o8y
p2924
aV3v92
p2925
aV3v98
p2926
aV3v99
p2927
aV1v0x
p2928
aV3e00
p2929
aV3dzu
p2930
aV3dzy
p2931
aV3ty0
p2932
aV3adx
p2933
aV3brt
p2934
aV4e3c
p2935
aV4kik
p2936
aV3brv
p2937
aV3brt
p2938
aV2ib8
p2939
aV2ib7
p2940
aV2ib9
p2941
aV2iby
p2942
aV2ibu
p2943
aV13gs
p2944
aV4j7x
p2945
asVDB00419
p2946
(lp2947
sVDB00558
p2948
(lp2949
V1a4g
p2950
aV2f0z
p2951
aV3san
p2952
aV4i00
p2953
aV4cpn
p2954
aV3ti5
p2955
aV4b7q
p2956
aV4b7n
p2957
aV4wa5
p2958
aV1nnc
p2959
aV2ya7
p2960
aV2htq
p2961
asVDB00553
p2962
(lp2963
V1z11
p2964
asVDB00552
p2965
(lp2966
V1m7m
p2967
aV3iar
p2968
aV2pgr
p2969
aV1a4l
p2970
asVDB00551
p2971
(lp2972
V1fwe
p2973
aV3ba0
p2974
aV1os2
p2975
aV1utt
p2976
aV1utz
p2977
aV1y93
p2978
aV4h9m
p2979
aV3dpf
p2980
aV4ubp
p2981
aV4a7b
p2982
aV2ow9
p2983
aV3kec
p2984
aV1e9y
p2985
asVDB00550
p2986
(lp2987
V4qyq
p2988
asVDB00775
p2989
(lp2990
V2vdm
p2991
aV1ty5
p2992
aV2vdm
p2993
aV1ty5
p2994
asVDB00774
p2995
(lp2996
V1bzm
p2997
aV1czm
p2998
aV2nmx
p2999
aV1hcb
p3000
aV2nn1
p3001
aV1lug
p3002
aV2qo8
p3003
aV4r5b
p3004
aV3igp
p3005
aV3sbh
p3006
aV1znc
p3007
aV3f7b
p3008
aV3fw3
p3009
aV3f7u
p3010
aV3iai
p3011
aV4kp5
p3012
aV4qjw
p3013
aV4kp8
p3014
aV4qjo
p3015
aV4q0l
p3016
aV3naf
p3017
aV3mt5
p3018
aV2k44
p3019
aV3ilu
p3020
asVDB00773
p3021
(lp3022
V1lwz
p3023
aV4fm9
p3024
aV1zxm
p3025
aV1zxn
p3026
aV4r1f
p3027
aV3qx3
p3028
aV4lb9
p3029
asVDB04573
p3030
(lp3031
V3q95
p3032
aV3oll
p3033
aV1l2j
p3034
aV1u3r
p3035
aV1nde
p3036
aV1qkm
p3037
aV1x8v
p3038
asVDB00679
p3039
(lp3040
V1i15
p3041
aV2you
p3042
aV5aer
p3043
aV1oz5
p3044
aV2l0w
p3045
aV2l1m
p3046
aV2l4r
p3047
aV4hp9
p3048
aV4hqa
p3049
aV4i1r
p3050
asVDB00676
p3051
(lp3052
V1dzm
p3053
asVDB00674
p3054
(lp3055
V2maw
p3056
aV4uxu
p3057
aV4d01
p3058
aV4uy2
p3059
aV2gvt
p3060
aV2ksr
p3061
aV2lm2
p3062
aV2k58
p3063
aV2k59
p3064
aV2asg
p3065
aV3o9m
p3066
aV4tpk
p3067
aV4aqd
p3068
aV2pm8
p3069
aV2wij
p3070
aV4ey6
p3071
aV2df9
p3072
aV2asg
p3073
aV2gvt
p3074
aV2lly
p3075
aV1w6r
p3076
aV1dx6
p3077
aV1qti
p3078
aV1w76
p3079
aV2ph9
p3080
asVDB00891
p3081
(lp3082
sVDB00779
p3083
(lp3084
sVDB00671
p3085
(lp3086
V4kou
p3087
asVDB00384
p3088
(lp3089
V2m3o
p3090
aV3bme
p3091
aV3jq7
p3092
asVDB00382
p3093
(lp3094
V4bdt
p3095
aV1clj
p3096
aV1puv
p3097
aV1puw
p3098
aV2x8b
p3099
aV4bds
p3100
aV1acj
p3101
asVDB00381
p3102
(lp3103
V3g43
p3104
aV3oxq
p3105
aV2be6
p3106
aV2lqc
p3107
aV2f3z
p3108
aV2vay
p3109
aV2lcm
p3110
aV1bzm
p3111
aV1czm
p3112
aV2nmx
p3113
aV1hcb
p3114
aV2nn1
p3115
aV3tmz
p3116
aV3ua5
p3117
asVDB08877
p3118
(lp3119
V4e5w
p3120
aV4e4n
p3121
aV4ivb
p3122
aV4ehz
p3123
aV4ivc
p3124
aV4jia
p3125
aV4gmy
p3126
aV4e4m
p3127
aV4e6q
p3128
aV3e64
p3129
aV4u5j
p3130
asVDB04786
p3131
(lp3132
V1z8e
p3133
aV2fzq
p3134
aV2nyr
p3135
aV4ay9
p3136
aV4mqw
p3137
aV1xwd
p3138
aV2h9t
p3139
aV3bf6
p3140
aV3u8d
p3141
aV1kvo
p3142
aV1kqu
p3143
aV1pod
p3144
aV1poe
p3145
aV1y8e
p3146
aV4j4v
p3147
aV1y4l
p3148
aV2qhg
p3149
aV3bjw
p3150
aV4x3u
p3151
aV3gan
p3152
asVDB00701
p3153
(lp3154
V3nu3
p3155
aV3nu6
p3156
aV3nu4
p3157
aV3nu5
p3158
aV3nuo
p3159
aV4jec
p3160
aV4j5j
p3161
aV3ekv
p3162
aV3oxv
p3163
aV3em3
p3164
aV3ekp
p3165
aV1hpv
p3166
aV1t7j
p3167
aV3s43
p3168
aV3sm2
p3169
aV3s45
p3170
asVDB00254
p3171
(lp3172
V3izv
p3173
aV3izw
p3174
aV3j00
p3175
aV3j0u
p3176
aV3j0v
p3177
aV4tp8
p3178
aV4tpa
p3179
aV4tpc
p3180
aV4tpe
p3181
aV4kiy
p3182
aV2o7o
p3183
aV2xrl
p3184
asVDB00255
p3185
(lp3186
V3erd
p3187
aV2erd
p3188
aV2e2r
p3189
aV2zbs
p3190
aV2zas
p3191
aV2zkc
p3192
aV1tfc
p3193
aV3oll
p3194
aV1l2j
p3195
aV1u3r
p3196
aV1nde
p3197
aV1qkm
p3198
aV1tt6
p3199
aV1tz8
p3200
aV1s9p
p3201
asVDB00257
p3202
(lp3203
V2xfh
p3204
aV3mdv
p3205
asVDB00259
p3206
(lp3207
V1aj0
p3208
aV4coq
p3209
aV4f92
p3210
aV4f93
p3211
asVDB00709
p3212
(lp3213
sVDB04835
p3214
(lp3215
V1nd8
p3216
aV1ne0
p3217
aV1opn
p3218
aV1opt
p3219
aV1opw
p3220
asVDB06626
p3221
(lp3222
V3hng
p3223
aV1qsv
p3224
aV1qsz
p3225
aV2xac
p3226
aV1flt
p3227
aV4agc
p3228
aV4ag8
p3229
aV4bsj
p3230
aV4bsk
p3231
asVDB06151
p3232
(lp3233
V207l
p3234
aV2j2p
p3235
asVDB00828
p3236
(lp3237
V1uae
p3238
aV3kqj
p3239
aV3kr6
p3240
aV3iss
p3241
aV1a2n
p3242
aV2bnn
p3243
aV3d41
p3244
aV3quo
p3245
aV4jh6
p3246
aV4jh8
p3247
aV4jh3
p3248
aV4jh5
p3249
aV4jh4
p3250
aV3uh9
p3251
aV4ir0
p3252
aV4jd1
p3253
aV1lqp
p3254
asVDB05294
p3255
(lp3256
V1kat
p3257
aV2fjh
p3258
aV2vpf
p3259
aV3qtk
p3260
aV1vpp
p3261
aV3qwq
p3262
aV3njp
p3263
aV1nql
p3264
aV1yy9
p3265
aV4kro
p3266
aV1rja
p3267
aV2kgt
p3268
aV4k0v
p3269
aV2gy5
p3270
aV2gy7
p3271
aV1fvr
p3272
aV3l8p
p3273
asVDB04876
p3274
(lp3275
V3w2t
p3276
asVDB00176
p3277
(lp3278
sVDB00171
p3279
(lp3280
V1wxm
p3281
aV3my0
p3282
aV2lcr
p3283
aV4fao
p3284
aV2xcw
p3285
aV2xje
p3286
aV2xjd
p3287
aV4ejn
p3288
aV3o96
p3289
aV4ekl
p3290
aV3qkm
p3291
aV4gv1
p3292
aV4mk0
p3293
aV4pnk
p3294
aV3v5w
p3295
aV3cik
p3296
aV3krw
p3297
aV3j2t
p3298
aV3iyt
p3299
aV3iza
p3300
aV3hmi
p3301
aV2xyn
p3302
aV3nsv
p3303
aV3gvu
p3304
aV2kk1
p3305
aV4c02
p3306
aV3h9r
p3307
aV3q4u
p3308
aV3oom
p3309
aV3mtf
p3310
aV2nz2
p3311
aV2lna
p3312
aV4hzs
p3313
aV4ewh
p3314
aV3eqr
p3315
aV3eqp
p3316
aV4id7
p3317
aV2fo0
p3318
aV1opl
p3319
aV4xey
p3320
aV2f4j
p3321
aV4wa9
p3322
aV4fod
p3323
aV3lct
p3324
aV3lcs
p3325
aV4fnw
p3326
aV3l9p
p3327
aV2nvu
p3328
aV1r4n
p3329
aV4rer
p3330
aV4rew
p3331
aV4red
p3332
aV4b0s
p3333
aV3k5h
p3334
aV3ty5
p3335
aV4gp7
p3336
aV4lya
p3337
aV4dth
p3338
aV4dtl
p3339
aV3fdx
p3340
aV3ikh
p3341
aV4usj
p3342
aV4usi
p3343
aV4ej7
p3344
aV3r78
p3345
aV4dxl
p3346
aV4ed4
p3347
asVDB00170
p3348
(lp3349
V3h5c
p3350
aV3f1s
p3351
aV4fgl
p3352
aV4fgj
p3353
aV4fgk
p3354
aV1sg0
p3355
aV1xi2
p3356
aV1d4a
p3357
aV1kbo
p3358
aV1dxo
p3359
aV1gg5
p3360
aV2f1o
p3361
aV4o03
p3362
aV4nzq
p3363
aV4hzh
p3364
aV3nxp
p3365
aV1hag
p3366
aV4jze
p3367
aV2bz6
p3368
aV2c4f
p3369
aV4jyu
p3370
aV4ish
p3371
aV3lc3
p3372
aV3lc5
p3373
aV1rfn
p3374
aV2wph
p3375
aV2wpj
p3376
aV1c5m
p3377
aV1hcg
p3378
aV2xc5
p3379
aV2xbw
p3380
aV2uwp
p3381
aV1aut
p3382
aV3f6u
p3383
aV1lqv
p3384
aV3jtc
p3385
aV1z6c
p3386
aV4hqm
p3387
asVDB00173
p3388
(lp3389
V1cb0
p3390
aV1jh8
p3391
aV4kqf
p3392
aV1zn7
p3393
aV1z5n
p3394
aV1jys
p3395
aV3ff6
p3396
aV3tdc
p3397
aV3jrx
p3398
aV2hjw
p3399
aV3jrw
p3400
aV5pnt
p3401
aV3n8i
p3402
aV1xww
p3403
aV1yxm
p3404
aV1mud
p3405
aV1wei
p3406
aV1s2d
p3407
aV2x7g
p3408
aV1hqc
p3409
aV3rys
p3410
aV4g89
p3411
aV4jos
p3412
aV4nsn
p3413
aV3ujo
p3414
aV4lna
p3415
aV4m1e
p3416
aV3u6z
p3417
aV3rl9
p3418
aV3u70
p3419
aV3v2k
p3420
aV4l5c
p3421
aV4l6i
p3422
aV4d8v
p3423
aV4dao
p3424
asVDB00172
p3425
(lp3426
V2wfj
p3427
aV2gw2
p3428
aV2wfi
p3429
aV2ger
p3430
aV2gr9
p3431
aV2gra
p3432
aV2izz
p3433
aV4k87
p3434
aV4k88
p3435
aV4k86
p3436
aV4hvc
p3437
aV1fyj
p3438
aV1mzw
p3439
aV1qoi
p3440
aV4bta
p3441
aV4bt9
p3442
aV4btb
p3443
aV2yq8
p3444
aV4bt8
p3445
aV3ici
p3446
aV3ich
p3447
aV1cyn
p3448
aV4o8h
p3449
aV2z6w
p3450
aV3rcg
p3451
aV4j5e
p3452
aV4j5c
p3453
aV2esl
p3454
aV3k0m
p3455
aV1awq
p3456
aV1awr
p3457
aV1ynd
p3458
aV2cpl
p3459
aV2ewb
p3460
asVDB00179
p3461
(lp3462
V2abv
p3463
aV3o8y
p3464
aV3v92
p3465
aV3v98
p3466
aV3v99
p3467
aV4pwj
p3468
asVDB01119
p3469
(lp3470
V1bzm
p3471
aV1czm
p3472
aV2nmx
p3473
aV1hcb
p3474
aV2nn1
p3475
aV1lug
p3476
aV2qo8
p3477
aV4r5b
p3478
aV3igp
p3479
aV3sbh
p3480
aV3naf
p3481
aV3mt5
p3482
aV2k44
p3483
aV4lv9
p3484
asVDB01370
p3485
(lp3486
V4h0w
p3487
aV3qyt
p3488
aV3v8x
p3489
aV2hav
p3490
aV3v83
p3491
asVDB00879
p3492
(lp3493
V2no6
p3494
asVDB00581
p3495
(lp3496
V3w9t
p3497
asVDB01273
p3498
(lp3499
V2gvt
p3500
aV2lly
p3501
aV2maw
p3502
aV2asg
p3503
aV4afg
p3504
aV4aft
p3505
aV5ain
p3506
asVDB01275
p3507
(lp3508
V4btw
p3509
aV4bty
p3510
aV4btx
p3511
aV2c10
p3512
aV2y73
p3513
aV4bta
p3514
aV4bt9
p3515
aV4btb
p3516
aV2yq8
p3517
aV4bt8
p3518
aV3ltw
p3519
asVDB00582
p3520
(lp3521
sVDB01051
p3522
(lp3523
V4uro
p3524
aV1aj6
p3525
aV1s14
p3526
aV3lps
p3527
aV1kij
p3528
aV4urn
p3529
aV4urn
p3530
asVDB01050
p3531
(lp3532
V1v0x
p3533
aV1g5o
p3534
aV1gjh
p3535
aV1ysw
p3536
aV2o21
p3537
aV2o22
p3538
aV1dx5
p3539
aV3gis
p3540
aV1dqb
p3541
aV1zaq
p3542
aV1adx
p3543
aV1bda
p3544
aV1a5h
p3545
aV1rtf
p3546
aV1pk2
p3547
aV1tpg
p3548
aV3akm
p3549
aV1kzw
p3550
aV2mji
p3551
aV3ifb
p3552
aV1kzx
p3553
aV3e00
p3554
aV3dzu
p3555
aV3dzy
p3556
aV3ty0
p3557
aV3adx
p3558
aV1xmi
p3559
aV2bbs
p3560
aV2bbo
p3561
aV2bbt
p3562
aV1xmj
p3563
aV1eqg
p3564
aV3p6h
p3565
aV2qz1
p3566
aV3fkx
p3567
aV3hwq
p3568
aV3ib2
p3569
aV4jtr
p3570
aV2pws
p3571
aV4rs0
p3572
aV4ph9
p3573
aV2wd9
p3574
asVDB01053
p3575
(lp3576
V1fxv
p3577
aV1gm7
p3578
aV1uof
p3579
aV3kp2
p3580
aV3huo
p3581
asVDB00583
p3582
(lp3583
V2h7c
p3584
aV1mx1
p3585
aV2hrq
p3586
aV2hrr
p3587
aV1mx5
p3588
aV3f9p
p3589
aV1d2v
p3590
aV1cxp
p3591
aV1dnu
p3592
aV1d5l
p3593
aV1s5o
p3594
aV2le3
p3595
aV2e1q
p3596
aV2ckj
p3597
aV3hfx
p3598
aV1ndf
p3599
aV2h3u
p3600
aV2h3p
p3601
aV1t7q
p3602
aV1t7o
p3603
aV1xl8
p3604
asVDB01058
p3605
(lp3606
V1gtb
p3607
asVDB01112
p3608
(lp3609
V3nbl
p3610
aV3zg9
p3611
asVDB01113
p3612
(lp3613
V4wzi
p3614
aV4x0f
p3615
aV3g45
p3616
aV3hmv
p3617
aV1f0j
p3618
aV2wey
p3619
asVDB08816
p3620
(lp3621
V1t78
p3622
aV1vz1
p3623
aV1y9c
p3624
aV5alb
p3625
aV5alb
p3626
aV5alc
p3627
aV5alc
p3628
asVDB00788
p3629
(lp3630
V1v0x
p3631
aV4po0
p3632
aV4or0
p3633
aV4fjp
p3634
aV4ot2
p3635
aV3nt1
p3636
asVDB00586
p3637
(lp3638
V1v0x
p3639
aV2abv
p3640
aV3o8y
p3641
aV3v92
p3642
aV3v98
p3643
aV3v99
p3644
aV3u8d
p3645
aV1kvo
p3646
aV1kqu
p3647
aV1pod
p3648
aV1poe
p3649
aV1nr6
p3650
aV3cfq
p3651
aV3n8y
p3652
aV2b6d
p3653
aV3hwv
p3654
aV3ib0
p3655
aV1sv9
p3656
aV2b17
p3657
aV1pxx
p3658
aV4ubs
p3659
aV2wek
p3660
asVDB01117
p3661
(lp3662
V3i68
p3663
aV3i6r
p3664
aV4cq8
p3665
aV4orm
p3666
aV3o8a
p3667
aV3w7r
p3668
aV2prl
p3669
aV2prm
p3670
aV3kvm
p3671
aV3u2o
p3672
aV4pd4
p3673
asVDB02703
p3674
(lp3675
V1jqm
p3676
aV3izp
p3677
aV2bm0
p3678
aV2bm1
p3679
aV2j7k
p3680
aV1qca
p3681
aV2vuf
p3682
aV1q23
p3683
asVDB00513
p3684
(lp3685
V1cea
p3686
aV2pk4
p3687
aV1hpk
p3688
aV1pk2
p3689
aV1jfn
p3690
aV2feb
p3691
aV1i71
p3692
aV4bvv
p3693
aV4bvc
p3694
aV3a65
p3695
aV3vwp
p3696
aV3vwr
p3697
aV3vwq
p3698
aV3a66
p3699
aV4dxu
p3700
aV3kiv
p3701
aV4g24
p3702
aV2jt9
p3703
asVDB00512
p3704
(lp3705
V1pn3
p3706
aV1pnv
p3707
aV3h4t
p3708
aV3h4i
p3709
asVDB00458
p3710
(lp3711
V2nz0
p3712
aV1s1g
p3713
aV2q72
p3714
aV4mqs
p3715
aV4mqt
p3716
aV1lub
p3717
aV2csa
p3718
asVDB00515
p3719
(lp3720
V3iwx
p3721
aV4rsz
p3722
aV3re0
p3723
aV2aeo
p3724
aV3txf
p3725
aV3txg
p3726
aV4dd4
p3727
aV4dd6
p3728
aV4ddc
p3729
aV4tus
p3730
aV4ot4
p3731
aV4rte
p3732
aV4n11
p3733
aV4n0z
p3734
aV4n10
p3735
asVDB01189
p3736
(lp3737
V2m6b
p3738
aV2m6i
p3739
aV1vry
p3740
aV1zhd
p3741
aV1mot
p3742
aV2afl
p3743
aV3p4w
p3744
asVDB00451
p3745
(lp3746
V4lnx
p3747
aV1y0x
p3748
aV1eta
p3749
aV1rox
p3750
aV2rox
p3751
aV1etb
p3752
aV1ict
p3753
aV1ie4
p3754
aV2ceo
p3755
aV2riw
p3756
aV3q1e
p3757
aV1sn0
p3758
asVDB00456
p3759
(lp3760
V3pte
p3761
aV1ceg
p3762
aV1cef
p3763
aV1hvb
p3764
aV1yqs
p3765
aV2c5w
p3766
aV2c6w
p3767
aV2y2m
p3768
aV2y2o
p3769
aV2y2j
p3770
aV2xd5
p3771
aV2y2k
p3772
aV2waf
p3773
aV1kvl
p3774
aV2zq9
p3775
aV4kox
p3776
asVDB00457
p3777
(lp3778
V2l0w
p3779
aV2l1m
p3780
aV2l4r
p3781
aV4hp9
p3782
aV4hqa
p3783
asVDB01576
p3784
(lp3785
V4lar
p3786
aV4lar
p3787
asVDB01577
p3788
(lp3789
V2z5x
p3790
aV2z5y
p3791
aV2bxs
p3792
aV1h8q
p3793
aV2bxr
p3794
aV1s3e
p3795
aV2v5z
p3796
aV2xfn
p3797
aV1s3b
p3798
aV2xfp
p3799
aV1hll
p3800
aV1hof
p3801
aV1ho9
p3802
aV1hod
p3803
aV2cva
p3804
aV3gkz
p3805
aV4gqp
p3806
asVDB01606
p3807
(lp3808
V1vm1
p3809
aV1g56
p3810
asVDB00738
p3811
(lp3812
V1g55
p3813
aV3gy3
p3814
aV3cr5
p3815
aV3cr4
p3816
aV3hii
p3817
asVDB01601
p3818
(lp3819
V2rkg
p3820
aV2rkf
p3821
aV2q5k
p3822
aV2o4s
p3823
aV2qhc
p3824
aV2z54
p3825
aV3ogq
p3826
aV4l1a
p3827
aV1mui
p3828
aV1rv7
p3829
asVDB01603
p3830
(lp3831
V2y2m
p3832
aV2y2o
p3833
aV2y2j
p3834
aV2xd5
p3835
aV2y2k
p3836
aV2waf
p3837
aV2c5w
p3838
aV2c6w
p3839
aV3kp4
p3840
asVDB00220
p3841
(lp3842
V2r5q
p3843
aV2q64
p3844
aV2pyn
p3845
aV2pym
p3846
aV2q63
p3847
aV2qak
p3848
aV3ekx
p3849
aV3el5
p3850
aV3el0
p3851
aV1ohr
p3852
asVDB00730
p3853
(lp3854
V1kf6
p3855
aV3p4p
p3856
aV4kx6
p3857
aV3p4r
p3858
aV3p4s
p3859
aV1yvm
p3860
aV3sfe
p3861
asVDB00224
p3862
(lp3863
V1c6y
p3864
aV2r5p
p3865
aV1hsg
p3866
aV1sdt
p3867
aV1sdu
p3868
aV1sdv
p3869
aV1sgu
p3870
aV1hsh
p3871
aV2bpx
p3872
aV2avo
p3873
aV2avs
p3874
aV2avv
p3875
aV1k6c
p3876
aV3wsj
p3877
asVDB00227
p3878
(lp3879
V3cd5
p3880
aV2q6b
p3881
aV3cda
p3882
aV2q6c
p3883
aV3ccw
p3884
aV1cqp
p3885
aV4ly1
p3886
aV4lxz
p3887
aV3max
p3888
asVDB01597
p3889
(lp3890
V1itu
p3891
asVDB01593
p3892
(lp3893
sVDB01598
p3894
(lp3895
V3vma
p3896
aV3fwl
p3897
aV3fwm
p3898
aV3blm
p3899
aV1blc
p3900
aV1blh
p3901
aV1dja
p3902
aV1djc
p3903
aV3udx
p3904
aV4a52
p3905
aV4jmx
p3906
aV3q81
p3907
aV4ben
p3908
aV1jvj
p3909
aV1bt5
p3910
aV3upn
p3911
aV4h8r
p3912
aV4mxb
p3913
aV1h5x
p3914
asVDB06811
p3915
(lp3916
V1fum
p3917
aV3dm8
p3918
asVDB00428
p3919
(lp3920
V2w4x
p3921
asVDB00355
p3922
(lp3923
V1rgy
p3924
aV4x53
p3925
aV3ue0
p3926
aV1fr6
p3927
aV2zqc
p3928
aV3pbs
p3929
asVDB00548
p3930
(lp3931
V3buv
p3932
aV3bur
p3933
aV3g1r
p3934
aV3bv7
p3935
aV3cav
p3936
aV2kfn
p3937
aV2kfz
p3938
aV1kfs
p3939
aV1d9d
p3940
aV1krp
p3941
aV1tuf
p3942
asVDB00356
p3943
(lp3944
V3naf
p3945
aV3mt5
p3946
aV2k44
p3947
aV1m9j
p3948
aV1m8d
p3949
asVDB00350
p3950
(lp3951
sVDB00421
p3952
(lp3953
V2ab2
p3954
aV3vhu
p3955
aV2oax
p3956
aV1xj7
p3957
aV1t65
p3958
aV2am9
p3959
aV2pit
p3960
aV1t63
p3961
asVDB00420
p3962
(lp3963
V1i15
p3964
aV2you
p3965
aV5aer
p3966
aV1oz5
p3967
aV4mqs
p3968
aV4mqt
p3969
aV1lub
p3970
aV2csa
p3971
aV4ma7
p3972
asVDB06218
p3973
(lp3974
sVDB00642
p3975
(lp3976
V1ju6
p3977
aV1juj
p3978
aV1p4r
p3979
aV1pl0
p3980
aV1pkx
p3981
aV1kmv
p3982
aV3fs6
p3983
aV3ghw
p3984
aV3ntz
p3985
aV3nu0
p3986
aV2qk4
p3987
aV2v9y
p3988
aV4ew1
p3989
aV4ew2
p3990
aV4ew3
p3991
aV3k2h
p3992
aV2x9g
p3993
aV4kn2
p3994
aV4fqs
p3995
asVDB00128
p3996
(lp3997
V4j15
p3998
aV4p5x
p3999
aV4p60
p4000
aV2h31
p4001
aV4c6e
p4002
aV4c6f
p4003
aV4c6j
p4004
aV4c6i
p4005
aV4c6k
p4006
aV2v40
p4007
aV2k11
p4008
aV2e0j
p4009
aV1z7x
p4010
aV2q4g
p4011
aV2e0l
p4012
aV4ah6
p4013
aV4o0h
p4014
aV2gjo
p4015
aV1c46
p4016
aV2nwd
p4017
aV1jsf
p4018
aV1iwt
p4019
aV1iwu
p4020
aV4p5w
p4021
aV3ii0
p4022
aV2o53
p4023
aV2i3c
p4024
aV2q51
p4025
aV2o4h
p4026
aV4mri
p4027
aV2nz2
p4028
aV1q7l
p4029
asVDB00640
p4030
(lp4031
V2ydo
p4032
aV1r7n
p4033
aV1oea
p4034
aV1o74
p4035
aV2x1l
p4036
aV2q6k
p4037
aV2pgf
p4038
aV3kw2
p4039
aV3u40
p4040
aV3vas
p4041
aV3uq6
p4042
aV3vaq
p4043
aV4dc3
p4044
aV4o0s
p4045
aV4o0u
p4046
aV4o0w
p4047
aV1muo
p4048
aV3o0q
p4049
aV2q83
p4050
aV4d9h
p4051
asVDB00126
p4052
(lp4053
V4bta
p4054
aV4bt9
p4055
aV4btb
p4056
aV2yq8
p4057
aV4bt8
p4058
aV3s57
p4059
aV3s5a
p4060
aV3h8r
p4061
aV3h8x
p4062
aV3btx
p4063
aV4nhy
p4064
aV4nhx
p4065
aV2iuw
p4066
aV2yqe
p4067
aV2e6r
p4068
aV4kbz
p4069
aV3ouj
p4070
aV2hbt
p4071
aV3hqr
p4072
aV4bqy
p4073
aV1f9g
p4074
aV1xid
p4075
aV2a1x
p4076
aV3o2g
p4077
aV4bg1
p4078
aV4bhi
p4079
aV4bgk
p4080
aV4c5w
p4081
aV4twl
p4082
aV4jtp
p4083
aV4cip
p4084
aV2yld
p4085
aV3zwi
p4086
aV2ylg
p4087
aV2x08
p4088
aV4tvt
p4089
aV1e71
p4090
aV1e73
p4091
aV1e72
p4092
aV4rp9
p4093
aV4rp8
p4094
aV3tgy
p4095
aV3fxr
p4096
aV1oaf
p4097
asVDB00127
p4098
(lp4099
V3c6m
p4100
aV1d7k
p4101
aV2oo0
p4102
aV2on3
p4103
aV2wlk
p4104
aV1xl6
p4105
aV2wlj
p4106
aV3ku9
p4107
aV2b8j
p4108
aV1rm7
p4109
aV3vkg
p4110
aV1xpq
p4111
aV3qj7
p4112
aV3b7p
p4113
aV4mi4
p4114
aV4mj8
p4115
aV1rff
p4116
aV1rg2
p4117
aV1rfi
p4118
aV1rgu
p4119
aV1rh0
p4120
asVDB00122
p4121
(lp4122
V4bdt
p4123
aV1clj
p4124
aV1puv
p4125
aV1puw
p4126
aV2x8b
p4127
aV1p0m
p4128
aV4kwa
p4129
aV3c5i
p4130
aV4iwt
p4131
aV3ppq
p4132
aV4aga
p4133
aV1hcx
p4134
aV1gvm
p4135
aV1h8g
p4136
aV1oba
p4137
aV2ha3
p4138
aV2fy3
p4139
aV4i90
p4140
asVDB00123
p4141
(lp4142
V3bju
p4143
aV4dpg
p4144
aV1ko0
p4145
aV2ats
p4146
aV3ko7
p4147
aV1rcq
p4148
aV4nz6
p4149
asVDB00120
p4150
(lp4151
V3dyd
p4152
aV3l4g
p4153
aV2pah
p4154
aV1mmk
p4155
aV4anp
p4156
aV1mmt
p4157
aV1pah
p4158
aV3cmq
p4159
aV3teg
p4160
aV3hfv
p4161
aV3tup
p4162
aV3l4g
p4163
aV2xsn
p4164
aV1tkh
p4165
aV1w7m
p4166
aV1mcf
p4167
aV2dns
p4168
aV1mcd
p4169
aV1mce
p4170
aV1mcj
p4171
aV2dd0
p4172
aV2dd0
p4173
asVDB00121
p4174
(lp4175
V3ff6
p4176
aV3tdc
p4177
aV3jrx
p4178
aV2hjw
p4179
aV3jrw
p4180
aV2ejm
p4181
aV3bg3
p4182
aV3bg9
p4183
aV2cqy
p4184
aV2jku
p4185
aV4asi
p4186
aV2yl2
p4187
aV3coj
p4188
aV4dve
p4189
aV2uyw
p4190
aV2uz2
p4191
aV2zsc
p4192
aV2b8g
p4193
aV3v8k
p4194
aV3rky
p4195
aV4bj8
p4196
aV2dto
p4197
aV1wpy
p4198
aV2fyk
p4199
aV2dth
p4200
aV2dxt
p4201
aV3efs
p4202
aV3efr
p4203
aV1avd
p4204
aV2avi
p4205
aV2c4i
p4206
aV2jgs
p4207
asVDB00908
p4208
(lp4209
V4dck
p4210
aV4ovn
p4211
aV4jq0
p4212
aV2kbi
p4213
aV2l53
p4214
aV3ukm
p4215
aV2l0w
p4216
aV2l1m
p4217
aV2l4r
p4218
aV4hp9
p4219
aV4hqa
p4220
asVDB06777
p4221
(lp4222
V3dct
p4223
aV3ruu
p4224
aV3hc5
p4225
aV3dcu
p4226
aV3rut
p4227
aV2jn3
p4228
asVDB00321
p4229
(lp4230
V1hll
p4231
aV1hof
p4232
aV1ho9
p4233
aV1hod
p4234
aV4mqs
p4235
aV4mqt
p4236
aV1lub
p4237
aV2csa
p4238
aV2afl
p4239
aV2nz0
p4240
aV1s1g
p4241
aV1ozc
p4242
aV2a0d
p4243
aV2ifg
p4244
aV4gt5
p4245
aV4f0i
p4246
aV4pmm
p4247
aV4pms
p4248
aV4at5
p4249
aV4at4
p4250
aV4asz
p4251
aV4at3
p4252
aV1wwb
p4253
aV3apv
p4254
asVDB00905
p4255
(lp4256
V2f38
p4257
asVDB00907
p4258
(lp4259
V4dck
p4260
aV4ovn
p4261
aV4jq0
p4262
aV2kbi
p4263
aV2l53
p4264
aV4mqs
p4265
aV4mqt
p4266
aV1lub
p4267
asVDB00900
p4268
(lp4269
V1v3q
p4270
asVDB00903
p4271
(lp4272
V1gsf
p4273
aV1gse
p4274
asVDB00630
p4275
(lp4276
V2f92
p4277
aV4kqu
p4278
aV2i75
p4279
aV2cs5
p4280
aV2vph
p4281
aV3nfk
p4282
aV3nfl
p4283
aV2fh7
p4284
aV4pbx
p4285
aV4bpc
p4286
aV2yd9
p4287
aV2yd3
p4288
aV2jjd
p4289
aV3sdt
p4290
aV1yhm
p4291
asVDB00631
p4292
(lp4293
V4qcl
p4294
aV4q5v
p4295
aV4y97
p4296
aV1n5g
p4297
aV1k0p
p4298
aV3hnd
p4299
aV3hne
p4300
aV3hnf
p4301
aV3hnc
p4302
aV2wgh
p4303
aV2a7q
p4304
asVDB00635
p4305
(lp4306
V1m2z
p4307
aV3bqd
p4308
aV3k22
p4309
aV3e7c
p4310
aV4p6w
p4311
aV3pdj
p4312
aV1xu9
p4313
aV3qqp
p4314
aV4iju
p4315
aV4ijv
p4316
aV2v6d
p4317
aV3eau
p4318
aV3eb4
p4319
aV3eb3
p4320
aV1h61
p4321
aV2q1v
p4322
asVDB08916
p4323
(lp4324
V4g5j
p4325
aV3n85
p4326
aV3be1
p4327
aV3mzw
p4328
aV1s78
p4329
aV3wsq
p4330
aV2ahx
p4331
aV3u7u
p4332
aV3u2p
p4333
aV2r4b
p4334
aV3bce
p4335
asVDB01235
p4336
(lp4337
V1oz5
p4338
aV1i15
p4339
aV2you
p4340
aV5aer
p4341
aV4p6s
p4342
aV3teh
p4343
asVDB01234
p4344
(lp4345
V1m2z
p4346
aV1p93
p4347
aV1ain
p4348
aV1bo9
p4349
aV1qls
p4350
aV3e7g
p4351
aV4nos
p4352
aV1nsi
p4353
aV2nsi
p4354
aV3ej8
p4355
aV3mnp
p4356
aV3mno
p4357
aV3mne
p4358
aV3gn8
p4359
asVDB00947
p4360
(lp4361
V1qku
p4362
aV3ert
p4363
aV1g50
p4364
aV2ouz
p4365
aV3erd
p4366
aV4j03
p4367
asVDB00834
p4368
(lp4369
V2w8y
p4370
aV3h52
p4371
aV1nhz
p4372
aV4ltw
p4373
asVDB01232
p4374
(lp4375
V1c6z
p4376
aV3tkg
p4377
aV3tl9
p4378
aV3k4v
p4379
aV3ndt
p4380
aV3ndu
p4381
aV3pwr
p4382
aV3ufn
p4383
aV3el4
p4384
aV3ekq
p4385
aV4q5m
p4386
aV3n3i
p4387
aV1hxb
p4388
aV1fb7
p4389
aV2nmw
p4390
aV2nmz
p4391
aV3d1x
p4392
aV3d1y
p4393
aV2nmy
p4394
aV4qgi
p4395
aV3pww
p4396
aV3oxc
p4397
aV3s56
p4398
asVDB01394
p4399
(lp4400
V3ut5
p4401
aV4x1i
p4402
aV4x1y
p4403
aV4x1k
p4404
aV4x20
p4405
aV4lzr
p4406
aV4o2b
p4407
aV3e22
p4408
asVDB01393
p4409
(lp4410
V3sp6
p4411
aV1kkq
p4412
aV2npa
p4413
aV2p54
p4414
aV1k7l
p4415
aV3gwx
p4416
aV1gwx
p4417
aV3sp9
p4418
aV3tkm
p4419
aV3et2
p4420
aV3e00
p4421
aV3dzu
p4422
aV3dzy
p4423
aV3ty0
p4424
aV3adx
p4425
aV1iwh
p4426
asVDB01422
p4427
(lp4428
V2b3h
p4429
aV2gz5
p4430
aV4iku
p4431
aV4flk
p4432
aV2b3l
p4433
aV3ai8
p4434
asVDB03166
p4435
(lp4436
V3dtt
p4437
aV3psz
p4438
aV4lgn
p4439
aV3e11
p4440
aV3g14
p4441
aV4oko
p4442
aV3p85
p4443
aV4yyf
p4444
aV3kke
p4445
aV2we8
p4446
asVDB01162
p4447
(lp4448
V2l0w
p4449
aV2l1m
p4450
aV2l4r
p4451
aV4hp9
p4452
aV4hqa
p4453
aV4o33
p4454
aV4o3f
p4455
asVDB01165
p4456
(lp4457
V1lwz
p4458
aV4fm9
p4459
aV1zxm
p4460
aV1zxn
p4461
aV4r1f
p4462
asVDB01167
p4463
(lp4464
V3juv
p4465
aV3i3k
p4466
aV3ld6
p4467
aV3jus
p4468
asVDB05266
p4469
(lp4470
V2qyk
p4471
aV3tvx
p4472
aV3i8v
p4473
aV4wzi
p4474
aV4x0f
p4475
aV3g45
p4476
aV3hmv
p4477
aV1f0j
p4478
aV1lxu
p4479
aV2qym
p4480
aV3g58
p4481
aV1oyn
p4482
aV2fm0
p4483
aV2fm5
p4484
aV1rko
p4485
aV1lrc
p4486
aV4grq
p4487
asVDB00461
p4488
(lp4489
V1v0x
p4490
aV3taj
p4491
asVDB00466
p4492
(lp4493
V3ri5
p4494
asVDB00465
p4495
(lp4496
V1v0x
p4497
aV4grk
p4498
asVDB00783
p4499
(lp4500
V1qku
p4501
aV1g50
p4502
aV1qkt
p4503
aV1gwr
p4504
aV1a52
p4505
aV3oll
p4506
aV3ols
p4507
aV4j26
p4508
aV4j24
p4509
aV4s0t
p4510
aV1nrl
p4511
aV2o9i
p4512
aV4j5w
p4513
aV1m13
p4514
aV1lhu
p4515
aV1a27
p4516
aV1fdt
p4517
aV1iol
p4518
aV1fds
p4519
aV1fdu
p4520
aV1aqu
p4521
aV2d06
p4522
aV2j7x
p4523
aV1jgl
p4524
aV1jnn
p4525
aV1akf
p4526
asVDB00468
p4527
(lp4528
sVDB00786
p4529
(lp4530
V1uc1
p4531
aV4fvl
p4532
aV4g0d
p4533
aV4fu4
p4534
aV1pex
p4535
aV3c7x
p4536
aV1bqq
p4537
aV1buv
p4538
aV3ma2
p4539
aV4p3d
p4540
aV1rm8
p4541
aV2jsd
p4542
aV1su3
p4543
aV2clt
p4544
aV4auo
p4545
aV1ayk
p4546
aV4ayk
p4547
aV1gxd
p4548
aV1ck7
p4549
aV1eak
p4550
aV1rtg
p4551
aV1gen
p4552
aV1slm
p4553
aV1bm6
p4554
aV2srt
p4555
aV2d1o
p4556
aV1c3i
p4557
aV2ddy
p4558
aV1mmr
p4559
aV1mmq
p4560
aV1mmp
p4561
aV2y6c
p4562
aV1bzs
p4563
aV1kbc
p4564
aV1jan
p4565
aV1i76
p4566
aV1i73
p4567
aV1lkg
p4568
aV1l6j
p4569
aV1itv
p4570
aV4h3x
p4571
aV4h2e
p4572
aV3v96
p4573
aV4ilw
p4574
aV1q3a
p4575
aV3ba0
p4576
aV2jxy
p4577
aV1jiz
p4578
aV2k2g
p4579
aV2wo8
p4580
aV1r55
p4581
aV2jih
p4582
aV3hy7
p4583
asVDB00787
p4584
(lp4585
V1ki5
p4586
aV2ki5
p4587
aV4da7
p4588
aV1pwy
p4589
aV3mjr
p4590
asVDB00784
p4591
(lp4592
V1v0x
p4593
aV2xn3
p4594
aV4g2z
p4595
aV4jqa
p4596
asVDB01015
p4597
(lp4598
V1aj0
p4599
aV1aj2
p4600
aV1ajz
p4601
aV1w78
p4602
aV1w7k
p4603
asVDB01014
p4604
(lp4605
V3e00
p4606
aV3dzu
p4607
aV3dzy
p4608
aV3ty0
p4609
aV3adx
p4610
aV1v0x
p4611
aV2abv
p4612
aV3o8y
p4613
aV3v92
p4614
aV3v98
p4615
aV3v99
p4616
aV3lt5
p4617
asVDB01017
p4618
(lp4619
V3zcf
p4620
aV1j3s
p4621
aV3zoo
p4622
aV3nwv
p4623
aV3izv
p4624
aV3izw
p4625
aV3j00
p4626
aV3j0u
p4627
aV3j0v
p4628
aV4tp8
p4629
aV4tpa
p4630
aV4tpc
p4631
aV4tpe
p4632
aV4kiy
p4633
aV1iob
p4634
aV2i1b
p4635
aV9ilb
p4636
aV1itb
p4637
aV2kh2
p4638
aV2abv
p4639
aV3o8y
p4640
aV3v92
p4641
aV3v98
p4642
aV3v99
p4643
aV1lkg
p4644
aV1l6j
p4645
aV1itv
p4646
aV4h3x
p4647
aV4h2e
p4648
aV1kat
p4649
aV2fjh
p4650
aV2vpf
p4651
aV3qtk
p4652
aV1vpp
p4653
aV3e4c
p4654
aV1rwx
p4655
aV1rww
p4656
aV3d6m
p4657
aV1rwn
p4658
aV4pry
p4659
aV4qui
p4660
aV2j30
p4661
aV3pcx
p4662
aV4ps0
p4663
aV4ac0
p4664
aV2xpv
p4665
aV2wq5
p4666
aV2drd
p4667
aV3aod
p4668
aV4a99
p4669
aV3v3n
p4670
asVDB01011
p4671
(lp4672
V1gek
p4673
aV5cp4
p4674
aV1t87
p4675
aV1t88
p4676
aV3p6p
p4677
asVDB01010
p4678
(lp4679
V4bdt
p4680
aV1clj
p4681
aV1puv
p4682
aV1puw
p4683
aV2x8b
p4684
aV3o9m
p4685
aV4tpk
p4686
aV4aqd
p4687
aV2pm8
p4688
aV2wij
p4689
aV2ack
p4690
aV1ax9
p4691
aV1ack
p4692
asVDB00544
p4693
(lp4694
V1hvy
p4695
aV1ju6
p4696
aV1juj
p4697
aV3gg5
p4698
aV3ejl
p4699
aV3kvr
p4700
aV4o0o
p4701
aV4e1v
p4702
aV3kvv
p4703
aV3nbq
p4704
aV1upf
p4705
aV1h7x
p4706
aV3nsr
p4707
aV3nai
p4708
asVDB00540
p4709
(lp4710
V2csa
p4711
aV4mqs
p4712
aV4mqt
p4713
aV1lub
p4714
aV4m48
p4715
asVDB00766
p4716
(lp4717
V3blm
p4718
aV1blc
p4719
aV1blh
p4720
aV1dja
p4721
aV1djc
p4722
aV2xf3
p4723
aV2xfs
p4724
aV2xh9
p4725
aV2jap
p4726
asVDB00608
p4727
(lp4728
V2vct
p4729
aV2vcr
p4730
aV2wju
p4731
aV4acs
p4732
aV1ags
p4733
aV1a8m
p4734
aV1tnf
p4735
aV3it8
p4736
aV3wd5
p4737
aV4twt
p4738
aV4fgl
p4739
aV1cet
p4740
asVDB00760
p4741
(lp4742
V2ex2
p4743
aV2ex8
p4744
aV2ex6
p4745
aV2exb
p4746
aV2exa
p4747
aV4rbs
p4748
aV4eyl
p4749
asVDB00945
p4750
(lp4751
V1v0x
p4752
aV1mrq
p4753
aV3c3u
p4754
aV3nty
p4755
aV3gug
p4756
aV2g5j
p4757
aV3hwy
p4758
aV3iaz
p4759
aV1tgm
p4760
aV1oxr
p4761
aV2qqt
p4762
aV3gcl
p4763
aV4nsb
p4764
asVDB00762
p4765
(lp4766
V1sc7
p4767
aV1k4t
p4768
aV1t8i
p4769
aV1tl8
p4770
aV1rrj
p4771
aV1u65
p4772
asVDB00763
p4773
(lp4774
V4ig5
p4775
aV2gvc
p4776
asVDB00602
p4777
(lp4778
V4cof
p4779
aV3rhw
p4780
aV3rif
p4781
aV3ri5
p4782
aV3ria
p4783
asVDB00601
p4784
(lp4785
V4k7q
p4786
asVDB00607
p4787
(lp4788
V2y2m
p4789
aV2y2o
p4790
aV2y2j
p4791
aV2xd5
p4792
aV2y2k
p4793
aV2waf
p4794
aV2c5w
p4795
aV2c6w
p4796
aV1t9w
p4797
asVDB00606
p4798
(lp4799
V2mkv
p4800
aV1bzm
p4801
aV1czm
p4802
aV2nmx
p4803
aV1hcb
p4804
aV2nn1
p4805
aV1lug
p4806
aV2qo8
p4807
aV4r5b
p4808
aV3igp
p4809
aV3sbh
p4810
aV1znc
p4811
aV3f7b
p4812
aV3fw3
p4813
aV3f7u
p4814
aV3h6t
p4815
aV3tkd
p4816
aV1lbc
p4817
asVDB00605
p4818
(lp4819
V1v0x
p4820
aV3rx3
p4821
aV3u2c
p4822
aV4qtb
p4823
aV2zoq
p4824
aV3gwx
p4825
aV1gwx
p4826
aV3sp9
p4827
aV3tkm
p4828
aV3et2
p4829
aV4wev
p4830
aV4ikk
p4831
aV4ikl
p4832
aV4ikj
p4833
aV2kaw
p4834
asVDB00307
p4835
(lp4836
V4k6i
p4837
aV3h0a
p4838
aV1uhl
p4839
aV1h9u
p4840
aV2gl8
p4841
asVDB00302
p4842
(lp4843
V1ceb
p4844
aV1b2i
p4845
asVDB00303
p4846
(lp4847
V2ex2
p4848
aV2ex8
p4849
aV2ex6
p4850
aV2exb
p4851
aV2exa
p4852
aV3vma
p4853
aV3fwl
p4854
aV3fwm
p4855
aV3ita
p4856
aV3it9
p4857
aV3itb
p4858
aV4gcs
p4859
aV3m6b
p4860
aV3zgp
p4861
aV4qu3
p4862
asVDB00300
p4863
(lp4864
sVDB00260
p4865
(lp4866
V1xql
p4867
aV1pb9
p4868
asVDB00117
p4869
(lp4870
V4e1o
p4871
aV4phc
p4872
aV4g84
p4873
aV4g85
p4874
aV2lw7
p4875
aV1x59
p4876
aV3kl3
p4877
aV3koc
p4878
asVDB00115
p4879
(lp4880
V4ccz
p4881
aV2o2k
p4882
aV3bic
p4883
aV2xiq
p4884
aV2xij
p4885
aV2qtz
p4886
aV2qtl
p4887
aV2www
p4888
aV3sc0
p4889
aV3sbz
p4890
aV3som
p4891
aV3sby
p4892
aV2gsk
p4893
aV1nqh
p4894
aV3m8d
p4895
aV4kki
p4896
aV1n2z
p4897
aV1n4a
p4898
aV1ccw
p4899
aV1uc4
p4900
aV1egm
p4901
aV1uc5
p4902
asVDB06228
p4903
(lp4904
V2w26
p4905
asVDB06147
p4906
(lp4907
sVDB00119
p4908
(lp4909
V3bg3
p4910
aV4ima
p4911
aV1liu
p4912
aV2vgb
p4913
aV1liw
p4914
aV2vgf
p4915
aV2ozl
p4916
aV1ni4
p4917
aV3exe
p4918
aV3exi
p4919
aV3exh
p4920
aV3srf
p4921
aV3noj
p4922
aV1ylh
p4923
aV4b5w
p4924
aV4b5s
p4925
aV4b5u
p4926
aV4b5v
p4927
aV4fee
p4928
aV4feg
p4929
aV3tak
p4930
aV3rk8
p4931
aV4ew7
p4932
aV4lrs
p4933
aV4lrt
p4934
aV3vcr
p4935
aV3oyz
p4936
aV4dah
p4937
aV4jgp
p4938
aV4dbj
p4939
aV4jgo
p4940
asVDB00118
p4941
(lp4942
V1r74
p4943
aV2azt
p4944
aV1msv
p4945
aV1jl0
p4946
aV3h0w
p4947
aV3dz4
p4948
aV1i7b
p4949
aV2hj2
p4950
aV2p02
p4951
aV4ndn
p4952
aV4ktt
p4953
aV4pcu
p4954
aV4uuu
p4955
aV2obv
p4956
aV4xuc
p4957
aV4xud
p4958
aV3bwm
p4959
aV4xue
p4960
aV3bwy
p4961
aV2oxt
p4962
aV3eey
p4963
aV2q6o
p4964
aV4iv0
p4965
aV4mwz
p4966
aV3t7s
p4967
aV4uw0
p4968
aV3mte
p4969
aV3p2k
p4970
aV2igt
p4971
aV4ctj
p4972
aV4ctk
p4973
aV4iv8
p4974
asVDB00282
p4975
(lp4976
V2f89
p4977
aV4kpj
p4978
aV4nkf
p4979
aV4ogu
p4980
aV3sdr
p4981
asVDB00281
p4982
(lp4983
V4dck
p4984
aV4ovn
p4985
aV4jq0
p4986
aV2kbi
p4987
aV2l53
p4988
aV3qwq
p4989
aV3njp
p4990
aV1nql
p4991
aV1yy9
p4992
aV4kro
p4993
aV3ttr
p4994
asVDB00280
p4995
(lp4996
V4dck
p4997
aV4ovn
p4998
aV4jq0
p4999
aV2kbi
p5000
aV2l53
p5001
aV4mqs
p5002
aV4mqt
p5003
aV1lub
p5004
aV2csa
p5005
aV2nz0
p5006
aV1s1g
p5007
aV3apw
p5008
asVDB00162
p5009
(lp5010
V4wpn
p5011
aV4wp7
p5012
aV4wb9
p5013
aV4wj9
p5014
aV4x4l
p5015
aV3hy5
p5016
aV4ciz
p5017
aV3hx3
p5018
aV4cj6
p5019
aV1xgg
p5020
aV3o4r
p5021
aV1crb
p5022
aV1kgl
p5023
aV1mx8
p5024
aV1rbp
p5025
aV1brp
p5026
aV3bsz
p5027
aV1gx8
p5028
aV1qab
p5029
aV1eii
p5030
aV1kt6
p5031
aV1kt7
p5032
aV1kt3
p5033
aV1kt4
p5034
aV1kt5
p5035
aV1aqb
p5036
aV1fbm
p5037
aV1iiu
p5038
aV4qyn
p5039
aV2rct
p5040
aV4qzu
p5041
aV4qzt
p5042
asVDB00163
p5043
(lp5044
V1olm
p5045
aV1o6u
p5046
aV4omj
p5047
aV4omk
p5048
aV4s0t
p5049
aV1nrl
p5050
aV2o9i
p5051
aV4j5w
p5052
aV1m13
p5053
aV2i0e
p5054
aV2abv
p5055
aV3o8y
p5056
aV3v92
p5057
aV3v98
p5058
aV3v99
p5059
aV3iw4
p5060
aV4ra4
p5061
aV4dnl
p5062
aV2eli
p5063
aV1tuz
p5064
aV2npp
p5065
aV2iae
p5066
aV3p71
p5067
aV3fga
p5068
aV3c5w
p5069
aV4tlg
p5070
aV4uyb
p5071
aV1kpm
p5072
aV3cyl
p5073
aV3cxi
p5074
aV1fe7
p5075
asVDB00160
p5076
(lp5077
V3imz
p5078
aV4kyo
p5079
aV1h0c
p5080
aV3r9a
p5081
aV4kxk
p5082
aV2hzp
p5083
aV3e9k
p5084
aV3ihj
p5085
aV4xl8
p5086
aV4id9
p5087
aV4whx
p5088
aV4wcx
p5089
aV4io5
p5090
aV4g4w
p5091
aV1yfs
p5092
aV4v2v
p5093
aV2bd3
p5094
aV2g50
p5095
asVDB00161
p5096
(lp5097
V2abj
p5098
aV2coj
p5099
aV2coi
p5100
aV2cog
p5101
aV3vns
p5102
asVDB00166
p5103
(lp5104
V2iqd
p5105
aV1x2h
p5106
aV2c8m
p5107
asVDB00167
p5108
(lp5109
V2jif
p5110
aV2abj
p5111
aV2coj
p5112
aV2coi
p5113
aV2cog
p5114
aV1kta
p5115
aV1ekf
p5116
aV1ekv
p5117
aV1ekp
p5118
aV2a1h
p5119
asVDB00165
p5120
(lp5121
V2f7k
p5122
aV4en4
p5123
aV3fhx
p5124
aV2yxu
p5125
aV3keu
p5126
aV4c5l
p5127
asVDB00770
p5128
(lp5129
V3whx
p5130
aV3whx
p5131
asVDB00168
p5132
(lp5133
V3mgc
p5134
aV1a8j
p5135
asVDB00169
p5136
(lp5137
V1ie9
p5138
aV3a40
p5139
aV3p8x
p5140
aV3a3z
p5141
aV3a78
p5142
aV3vrm
p5143
aV3a50
p5144
aV2gj5
p5145
aV2ojd
p5146
aV3c6g
p5147
asVDB01213
p5148
(lp5149
V1u3t
p5150
aV1hso
p5151
aV1u3u
p5152
aV1u3v
p5153
aV1deh
p5154
aV1hsz
p5155
aV1hdx
p5156
aV1u3w
p5157
aV1ht0
p5158
aV1dda
p5159
aV1qqw
p5160
aV1dgb
p5161
aV1dgf
p5162
aV1dgg
p5163
aV1dgh
p5164
asVDB00841
p5165
(lp5166
V2lsq
p5167
aV3pds
p5168
aV4gbr
p5169
aV3kj6
p5170
aV2r4r
p5171
aV2r4s
p5172
aV2y00
p5173
aV2y01
p5174
asVDB01264
p5175
(lp5176
V4npt
p5177
aV3tkw
p5178
aV2hs1
p5179
aV2idw
p5180
aV2hs2
p5181
aV2ieo
p5182
aV4hla
p5183
aV3qoz
p5184
aV1s6g
p5185
aV2ien
p5186
aV3bvb
p5187
aV1s6s
p5188
aV1s65
p5189
aV1t3r
p5190
aV3oy4
p5191
aV3oxw
p5192
aV3em6
p5193
aV3lzv
p5194
aV3ebz
p5195
aV3d20
p5196
aV2f8g
p5197
aV2f81
p5198
aV3d1z
p5199
aV3cyw
p5200
aV4dqb
p5201
aV4dqh
p5202
aV4dqe
p5203
aV4dqc
p5204
aV4dqf
p5205
aV3ogp
p5206
aV3lzs
p5207
aV3lzu
p5208
asVDB01265
p5209
(lp5210
sVDB01263
p5211
(lp5212
sVDB00847
p5213
(lp5214
V2mi1
p5215
aV2y8d
p5216
aV3q1l
p5217
asVDB01261
p5218
(lp5219
V1x70
p5220
aV4ffw
p5221
asVDB00859
p5222
(lp5223
sVDB01268
p5224
(lp5225
V1lwp
p5226
aV3mjg
p5227
aV2l6w
p5228
aV1gq5
p5229
aV2pld
p5230
aV3hng
p5231
aV1qsv
p5232
aV1qsz
p5233
aV2xac
p5234
aV1flt
p5235
aV3g0e
p5236
aV3g0f
p5237
aV4agd
p5238
aV4bsj
p5239
aV4bsk
p5240
aV3qs9
p5241
aV3qs7
p5242
aV1rjb
p5243
aV4xuf
p5244
aV4liq
p5245
aV2ogv
p5246
aV3bea
p5247
aV2i1m
p5248
aV3krj
p5249
aV2y7j
p5250
aV4ks8
p5251
asVDB01048
p5252
(lp5253
V3vri
p5254
aV3vrj
p5255
aV3upr
p5256
asVDB01045
p5257
(lp5258
V4kmu
p5259
aV3iyd
p5260
aV3lu0
p5261
aV4kn7
p5262
aV4igc
p5263
aV4kmu
p5264
aV1skx
p5265
aV2hw2
p5266
aV1ynn
p5267
aV1i6v
p5268
asVDB01043
p5269
(lp5270
V1s11
p5271
aV1s2s
p5272
aV4twd
p5273
asVDB01041
p5274
(lp5275
V4tz4
p5276
aV1a8m
p5277
aV1tnf
p5278
aV3it8
p5279
aV3wd5
p5280
aV4twt
p5281
aV1svc
p5282
aV3gut
p5283
aV1nfi
p5284
aV2dbf
p5285
aV1mdi
p5286
aV4j98
p5287
aV4j96
p5288
aV2pvy
p5289
aV2psq
p5290
aV3b2t
p5291
aV1v0x
p5292
aV4v2y
p5293
aV4v32
p5294
aV4ci1
p5295
aV4tzc
p5296
asVDB01190
p5297
(lp5298
V3jz0
p5299
asVDB00503
p5300
(lp5301
V1rl8
p5302
aV3ndx
p5303
aV3ndw
p5304
aV1sh9
p5305
aV1n49
p5306
aV3q70
p5307
aV3prs
p5308
aV1hxw
p5309
aV3tne
p5310
aV4eyr
p5311
aV2b60
p5312
aV4njv
p5313
asVDB01194
p5314
(lp5315
V4m2r
p5316
aV4m2v
p5317
aV1bzm
p5318
aV1czm
p5319
aV2nmx
p5320
aV1hcb
p5321
aV2nn1
p5322
aV1znc
p5323
aV3f7b
p5324
aV3fw3
p5325
aV3f7u
p5326
aV3znc
p5327
asVDB00507
p5328
(lp5329
V2c42
p5330
aV2c3m
p5331
aV1kek
p5332
aV2c3y
p5333
aV1b0p
p5334
asVDB00481
p5335
(lp5336
V2qxs
p5337
aV1err
p5338
aV2jfa
p5339
aV3oll
p5340
aV1l2j
p5341
aV1u3r
p5342
aV1nde
p5343
aV1qkm
p5344
aV2y05
p5345
aV1qkn
p5346
asVDB06637
p5347
(lp5348
V2nz0
p5349
aV1s1g
p5350
aV2afl
p5351
aV4bgc
p5352
aV1aeg
p5353
aV3rxf
p5354
asVDB00339
p5355
(lp5356
V3r55
p5357
aV3r4x
p5358
aV3tuw
p5359
aV1x8a
p5360
asVDB00338
p5361
(lp5362
V4kew
p5363
aV4o4p
p5364
aV4key
p5365
asVDB00336
p5366
(lp5367
V3ey9
p5368
aV3eya
p5369
aV1ger
p5370
aV1get
p5371
aV1ges
p5372
aV1geu
p5373
aV3hhp
p5374
aV2pwz
p5375
aV2cmd
p5376
aV1emd
p5377
aV1ib6
p5378
aV1yki
p5379
aV3r6w
p5380
asVDB00335
p5381
(lp5382
V2lsq
p5383
aV2nuv
p5384
aV2otf
p5385
aV2oub
p5386
asVDB00727
p5387
(lp5388
sVDB01104
p5389
(lp5390
sVDB08873
p5391
(lp5392
V2oc8
p5393
asVDB01127
p5394
(lp5395
V3r9c
p5396
asVDB01123
p5397
(lp5398
V1bcu
p5399
aV1qvt
p5400
aV1jt0
p5401
aV1qvu
p5402
aV1jt6
p5403
aV1rkw
p5404
aV2v57
p5405
aV3hth
p5406
asVDB00435
p5407
(lp5408
sVDB00352
p5409
(lp5410
V3bmg
p5411
aV4m5m
p5412
aV3jqa
p5413
asVDB01129
p5414
(lp5415
V3pgl
p5416
asVDB01128
p5417
(lp5418
V4ok1
p5419
aV4okt
p5420
aV4ojb
p5421
aV4okx
p5422
aV4olm
p5423
aV4la0
p5424
aV4fia
p5425
asVDB00433
p5426
(lp5427
V1i15
p5428
aV2you
p5429
aV5aer
p5430
aV3m0w
p5431
asVDB00655
p5432
(lp5433
V3hm1
p5434
asVDB00159
p5435
(lp5436
V1v0x
p5437
aV3e00
p5438
aV3dzu
p5439
aV3dzy
p5440
aV3ty0
p5441
aV3adx
p5442
aV3gwx
p5443
aV4phu
p5444
aV1igx
p5445
aV3hs6
p5446
asVDB00158
p5447
(lp5448
V4kmz
p5449
aV4p3r
p5450
aV4p3q
p5451
aV4pth
p5452
aV4ptj
p5453
aV3bmc
p5454
aV4m6k
p5455
aV2w3m
p5456
aV1drf
p5457
aV2w3b
p5458
aV1dhf
p5459
aV1vif
p5460
aV4kjj
p5461
aV4nx7
p5462
aV4kjk
p5463
aV4nx6
p5464
aV4i13
p5465
aV4keo
p5466
aV4lrh
p5467
aV2cd2
p5468
aV1cd2
p5469
aV3qb6
p5470
aV4eil
p5471
aV4kya
p5472
aV4eck
p5473
aV3ql0
p5474
asVDB00651
p5475
(lp5476
V4wzi
p5477
aV4x0f
p5478
aV3g45
p5479
aV3hmv
p5480
aV1f0j
p5481
aV2qyk
p5482
aV3tvx
p5483
aV3i8v
p5484
aV1lxu
p5485
aV2qym
p5486
aV3g58
p5487
aV1oyn
p5488
aV2fm0
p5489
aV2fm5
p5490
aV1rko
p5491
aV4uhr
p5492
aV1upe
p5493
aV2ydv
p5494
aV3vg9
p5495
aV2ydo
p5496
aV4pm0
p5497
aV4y2b
p5498
aV3g3n
p5499
aV1zkl
p5500
aV1lxw
p5501
aV2x0y
p5502
asVDB00153
p5503
(lp5504
V1ie9
p5505
aV3a40
p5506
aV3p8x
p5507
aV3a3z
p5508
aV3a78
p5509
aV3czh
p5510
asVDB00152
p5511
(lp5512
V1oly
p5513
aV4kys
p5514
aV3rlb
p5515
aV3lm8
p5516
aV1sbr
p5517
aV2lh8
p5518
aV1ig0
p5519
aV4nmy
p5520
aV3myu
p5521
aV2hh9
p5522
aV1ig3
p5523
asVDB00151
p5524
(lp5525
V2jis
p5526
aV2ic1
p5527
aV3ii0
p5528
aV3cog
p5529
aV2nmp
p5530
aV3elp
p5531
aV4l3v
p5532
aV4l0d
p5533
aV4coo
p5534
aV4l28
p5535
aV4l27
p5536
aV1eh6
p5537
aV1qnt
p5538
aV1yfh
p5539
aV1eh8
p5540
aV1eh7
p5541
aV2hgs
p5542
aV4qm9
p5543
aV4qm8
p5544
aV4ff9
p5545
aV2pad
p5546
aV3enj
p5547
aV3mre
p5548
aV2zsv
p5549
aV1v1q
p5550
aV1hfe
p5551
aV4bb2
p5552
aV1n26
p5553
asVDB00150
p5554
(lp5555
V1mb2
p5556
aV3fhj
p5557
aV3fi0
p5558
aV2azx
p5559
aV2quh
p5560
aV2dr2
p5561
aV2ake
p5562
aV4pip
p5563
aV2weu
p5564
aV3zte
p5565
aV4r33
p5566
aV4r34
p5567
aV4tpo
p5568
aV2ypq
p5569
aV3rzi
p5570
aV3kgf
p5571
aV3nue
p5572
aV3tze
p5573
aV1i7s
p5574
aV1i1q
p5575
aV3b3b
p5576
asVDB00157
p5577
(lp5578
V2dnw
p5579
aV1s3a
p5580
aV2fze
p5581
aV1m6h
p5582
aV1mp0
p5583
aV1m6w
p5584
aV1ma0
p5585
aV1ads
p5586
aV1el3
p5587
aV2r24
p5588
aV2acq
p5589
aV2acr
p5590
aV1zmd
p5591
aV3dk9
p5592
aV3djj
p5593
aV3dk8
p5594
aV3dk4
p5595
aV3grs
p5596
aV1f67
p5597
aV1u7t
p5598
aV2o23
p5599
aV1so8
p5600
aV2ic1
p5601
aV3b8k
p5602
aV1fyc
p5603
aV1y8o
p5604
aV1y8n
p5605
aV1y8p
p5606
aV1wsr
p5607
aV1wsv
p5608
aV2dfd
p5609
aV1ni6
p5610
aV1n45
p5611
aV3czy
p5612
aV1ozw
p5613
aV1ozr
p5614
aV2qpp
p5615
aV2rgz
p5616
aV2q32
p5617
aV4wmh
p5618
aV3swz
p5619
aV4nkv
p5620
aV4nkx
p5621
aV3ruk
p5622
aV4nkw
p5623
aV4rls
p5624
aV4qo8
p5625
aV4m49
p5626
aV4okn
p5627
aV4r68
p5628
aV1pj2
p5629
aV1zbq
p5630
aV1s9c
p5631
aV1ikt
p5632
aV1i0z
p5633
aV2q3e
p5634
aV3prj
p5635
aV1f17
p5636
aV2gf2
p5637
aV2i9p
p5638
aV3cd5
p5639
aV2q6b
p5640
aV3cda
p5641
aV2q6c
p5642
aV3ccw
p5643
aV3wja
p5644
aV2aw5
p5645
aV2g76
p5646
aV1u3t
p5647
aV1hso
p5648
aV1i5r
p5649
aV1a27
p5650
aV1fdt
p5651
aV3hb5
p5652
aV1bhs
p5653
aV4cqm
p5654
aV4cql
p5655
aV2pd6
p5656
aV2fvl
p5657
aV1pl8
p5658
aV1pl6
p5659
aV1pl7
p5660
aV1nf7
p5661
aV1nfb
p5662
aV1b3o
p5663
aV1ry0
p5664
aV1ry8
p5665
aV2f38
p5666
aV4wrh
p5667
aV1s1r
p5668
aV2gdz
p5669
aV4bl5
p5670
aV4bkp
p5671
aV4b8w
p5672
aV4b8z
p5673
aV4e5y
p5674
aV1mrq
p5675
aV3c3u
p5676
aV3nty
p5677
aV3gug
p5678
aV3pdj
p5679
aV1xu9
p5680
aV3qqp
p5681
aV4iju
p5682
aV4ijv
p5683
aV1jcn
p5684
aV3cos
p5685
aV1nzz
p5686
aV1nzw
p5687
aV1j96
p5688
aV1xjb
p5689
aV2hdj
p5690
aV4l1w
p5691
aV4l1x
p5692
aV3sza
p5693
aV3szb
p5694
aV4l1o
p5695
aV4l2o
p5696
aV4h80
p5697
aV4wb9
p5698
aV4x4l
p5699
aV3h9e
p5700
aV3pfw
p5701
aV1u3w
p5702
aV1ht0
p5703
aV1dda
p5704
aV1u8f
p5705
aV4wnc
p5706
aV1znq
p5707
aV2feh
p5708
aV4wni
p5709
aV4qgk
p5710
aV2w8p
p5711
aV2w8q
p5712
aV2w8r
p5713
aV2w8n
p5714
aV2w8o
p5715
aV2j6l
p5716
aV1hdo
p5717
aV1he2
p5718
aV1he3
p5719
aV1he4
p5720
aV1he5
p5721
aV1u3u
p5722
aV1u3v
p5723
aV1deh
p5724
aV1hsz
p5725
aV1hdx
p5726
aV2gr9
p5727
aV1l1f
p5728
aV1nr1
p5729
aV2ozl
p5730
aV1ni4
p5731
aV3exe
p5732
aV3exi
p5733
aV3exh
p5734
aV1ni4
p5735
aV3exe
p5736
aV2ozl
p5737
aV3exf
p5738
aV3exh
p5739
aV2h63
p5740
aV2vig
p5741
aV1kmv
p5742
aV3fs6
p5743
aV3ghw
p5744
aV3ntz
p5745
aV3nu0
p5746
aV1d1s
p5747
aV1agn
p5748
aV1d1t
p5749
aV4fgl
p5750
aV4fgj
p5751
aV4fgk
p5752
aV1sg0
p5753
aV1xi2
p5754
aV1a4i
p5755
aV1dia
p5756
aV1dig
p5757
aV1dib
p5758
aV1zn4
p5759
aV3v9g
p5760
aV3v9h
p5761
aV4oe5
p5762
aV3v9i
p5763
aV1m91
p5764
aV1umk
p5765
aV1x0v
p5766
aV1x0x
p5767
aV1wpq
p5768
aV1hdr
p5769
aV1djl
p5770
aV1u31
p5771
aV1pt9
p5772
aV4nbu
p5773
aV4m54
p5774
aV4itu
p5775
aV3fhm
p5776
aV4fju
p5777
aV4mio
p5778
aV4n54
p5779
aV3plr
p5780
aV4cv3
p5781
aV4cv2
p5782
aV3vdr
p5783
asVDB00156
p5784
(lp5785
V4p3n
p5786
aV4hwt
p5787
aV1wwt
p5788
aV3wqe
p5789
asVDB00155
p5790
(lp5791
V4n2i
p5792
aV4n28
p5793
aV4n2g
p5794
aV4n2n
p5795
aV4n2l
p5796
aV4dkt
p5797
aV2dew
p5798
aV3b1u
p5799
aV2dey
p5800
aV1wda
p5801
aV2nz2
p5802
aV2jai
p5803
aV1oth
p5804
aV1c9y
p5805
aV1fvo
p5806
aV1ep9
p5807
aV4d1n
p5808
aV4v3u
p5809
aV4uch
p5810
aV3e7g
p5811
aV4nos
p5812
aV1nsi
p5813
aV2nsi
p5814
aV3ej8
p5815
aV4d1p
p5816
aV4d1o
p5817
aV1m9m
p5818
aV1m9k
p5819
aV1m9q
p5820
aV1kp3
p5821
aV1lxy
p5822
aV4gvy
p5823
aV2c6z
p5824
aV1j1z
p5825
aV1j21
p5826
aV4jqo
p5827
aV1h70
p5828
asVDB00154
p5829
(lp5830
V1v0x
p5831
aV1fe2
p5832
asVDB00939
p5833
(lp5834
V1v0x
p5835
aV2abv
p5836
aV3o8y
p5837
aV3v92
p5838
aV3v98
p5839
aV3v99
p5840
aV4n6p
p5841
aV4qkn
p5842
asVDB04552
p5843
(lp5844
V3elo
p5845
aV1ysk
p5846
aV1v0x
p5847
aV2pfi
p5848
aV1cjy
p5849
aV1rlw
p5850
aV1bci
p5851
aV1td7
p5852
aV2wm3
p5853
asVDB00932
p5854
(lp5855
V2o4p
p5856
aV2o4l
p5857
aV1d4s
p5858
aV1d4y
p5859
aV2o4n
p5860
aV3spk
p5861
aV4nju
p5862
asVDB00936
p5863
(lp5864
V1v0x
p5865
aV1mrq
p5866
aV3c3u
p5867
aV3nty
p5868
aV3gug
p5869
aV3bpx
p5870
aV1pth
p5871
aV3w1w
p5872
aV1wyg
p5873
aV1jgs
p5874
aV3deu
p5875
aV1fo4
p5876
aV3uni
p5877
aV3unc
p5878
aV3una
p5879
aV3ax9
p5880
aV3twp
p5881
aV4hvr
p5882
aV3rem
p5883
aV3hgx
p5884
aV3ret
p5885
asVDB00129
p5886
(lp5887
V1jdw
p5888
aV2jdw
p5889
aV8jdw
p5890
aV7jdw
p5891
aV1jdx
p5892
aV2oat
p5893
aV1oat
p5894
aV2byj
p5895
aV1gbn
p5896
aV2can
p5897
aV1oth
p5898
aV1c9y
p5899
aV1fvo
p5900
aV1ep9
p5901
aV3gmz
p5902
aV3mfw
p5903
aV3gn0
p5904
aV2aeb
p5905
aV4hww
p5906
aV4hze
p5907
aV4i06
p5908
aV4ixu
p5909
aV4ie2
p5910
aV4ixv
p5911
aV4ffn
p5912
asVDB00235
p5913
(lp5914
V1lrc
p5915
aV1tlm
p5916
asVDB00233
p5917
(lp5918
V1v0x
p5919
aV3brt
p5920
aV2abv
p5921
aV3o8y
p5922
aV3v92
p5923
aV3v98
p5924
aV3v99
p5925
aV1pbc
p5926
aV1pbf
p5927
aV1sxk
p5928
asVDB00238
p5929
(lp5930
V3hvt
p5931
aV3v81
p5932
aV4puo
p5933
aV4pwd
p5934
aV4q0b
p5935
aV3qip
p5936
aV3lp0
p5937
aV3lp1
p5938
aV1jlb
p5939
aV1s1x
p5940
asVDB01030
p5941
(lp5942
V1k4t
p5943
asVDB08906
p5944
(lp5945
V3cld
p5946
asVDB00806
p5947
(lp5948
V4wzi
p5949
aV4x0f
p5950
aV3g45
p5951
aV3hmv
p5952
aV1f0j
p5953
aV3lfv
p5954
aV3mf0
p5955
aV2h44
p5956
aV2h42
p5957
aV1udt
p5958
aV3tvx
p5959
aV4uhr
p5960
aV1upe
p5961
aV2ydv
p5962
aV3vg9
p5963
aV2ydo
p5964
aV4h1s
p5965
aV4h2i
p5966
aV4h2g
p5967
aV4h2f
p5968
aV4h1y
p5969
aV2a3c
p5970
aV3aru
p5971
aV3arr
p5972
asVDB08901
p5973
(lp5974
V4qrc
p5975
aV4uxq
p5976
aV4tyj
p5977
aV2of2
p5978
aV2ofu
p5979
aV3ad5
p5980
aV3ad6
p5981
aV2of4
p5982
aV1y57
p5983
aV2src
p5984
aV1ksw
p5985
aV4k11
p5986
aV2h8h
p5987
aV3a4o
p5988
aV1w1f
p5989
aV1wa7
p5990
aV
aV2fo0
p5991
aV1opl
p5992
aV4xey
p5993
aV2f4j
p5994
aV4wa9
p5995
aV1k1f
p5996
aV4u0i
p5997
aV4ux8
p5998
aV1xpd
p5999
aV4ckj
p6000
aV4cki
p6001
aV2ivs
p6002
aV4k0v
p6003
aV2gy5
p6004
aV2gy7
p6005
aV1fvr
p6006
aV3l8p
p6007
aV3qs9
p6008
aV3qs7
p6009
aV1rjb
p6010
aV4xuf
p6011
aV3ky2
p6012
aV4rwk
p6013
aV3tt0
p6014
aV4rwi
p6015
aV3kxx
p6016
aV4j98
p6017
aV4j96
p6018
aV2pvy
p6019
aV2psq
p6020
aV3b2t
p6021
aV4k33
p6022
aV1ry7
p6023
aV2lzl
p6024
aV4v04
p6025
aV4v01
p6026
aV4c8b
p6027
aV3ik3
p6028
aV3oxz
p6029
asVDB00808
p6030
(lp6031
V4v0c
p6032
aV4umo
p6033
aV3bj4
p6034
aV3hfe
p6035
aV2k21
p6036
asVDB01229
p6037
(lp6038
V1g5o
p6039
aV1gjh
p6040
aV1ysw
p6041
aV2o21
p6042
aV2o22
p6043
aV4s0t
p6044
aV1nrl
p6045
aV2o9i
p6046
aV4j5w
p6047
aV1m13
p6048
aV1i8h
p6049
aV4e0n
p6050
aV4e0m
p6051
aV4e0o
p6052
aV1jff
p6053
aV2hxf
p6054
aV2hxh
p6055
aV3j6g
p6056
aV3j6p
p6057
aV2p4n
p6058
aV2wbe
p6059
aV3dco
p6060
aV3iz0
p6061
aV4ck5
p6062
aV3edl
p6063
asVDB00909
p6064
(lp6065
V4l1d
p6066
aV4mz3
p6067
aV4mz2
p6068
aV1bzm
p6069
aV1czm
p6070
aV2nmx
p6071
aV1hcb
p6072
aV2nn1
p6073
aV1lug
p6074
aV2qo8
p6075
aV4r5b
p6076
aV3igp
p6077
aV3sbh
p6078
aV2hfx
p6079
aV3uyq
p6080
aV2hfy
p6081
aV3uyn
p6082
aV1z93
p6083
aV1znc
p6084
aV3f7b
p6085
aV3fw3
p6086
aV3f7u
p6087
aV3fe4
p6088
aV3ml5
p6089
aV3mdz
p6090
aV2w2j
p6091
aV3iai
p6092
aV4kp5
p6093
aV4qjw
p6094
aV4kp8
p6095
aV4qjo
p6096
aV4q0l
p6097
aV3d0n
p6098
aV3da2
p6099
aV4knm
p6100
aV4knn
p6101
aV4qiz
p6102
aV4lu3
p6103
aV4jpz
p6104
aV2kav
p6105
aV3po7
p6106
aV2z5x
p6107
aV2z5y
p6108
aV2bxs
p6109
aV1h8q
p6110
aV2bxr
p6111
aV4dck
p6112
aV4ovn
p6113
aV4jq0
p6114
aV2kbi
p6115
aV2l53
p6116
as.