(dp1
S'DB00775'
p2
(lp3
S'2vdmB.LG0.pdb'
p4
aS'2vdmA.LG2.pdb'
p5
asS'DB00966'
p6
(lp7
S'3vn2A.LG1.pdb'
p8
asS'DB04573'
p9
(lp10
S'3ollA.LG1.pdb'
p11
aS'3q95B.LG1.pdb'
p12
aS'1iolA.LG0.pdb'
p13
aS'2yloA.LG0.pdb'
p14
asS'DB00679'
p15
(lp16
S'3tbgA.LG0.pdb'
p17
aS'3tbgA.LG1.pdb'
p18
asS'DB02959'
p19
(lp20
S'1yiaA.LG0.pdb'
p21
asS'DB00674'
p22
(lp23
S'4ey6B.LG1.pdb'
p24
asS'DB00675'
p25
(lp26
S'2fszB.LG1.pdb'
p27
aS'2fszB.LG0.pdb'
p28
aS'3ertA.LG0.pdb'
p29
aS'2gpuA.LG0.pdb'
p30
aS'1ya4C.LG2.pdb'
p31
aS'1ya4C.LG3.pdb'
p32
asS'DB00440'
p33
(lp34
S'2w3aA.LG1.pdb'
p35
asS'DB00959'
p36
(lp37
S'4p6xE.LG1.pdb'
p38
asS'DB00132'
p39
(lp40
S'1fe3A.LG0.pdb'
p41
asS'DB00773'
p42
(lp43
S'4lb9A.LG4.pdb'
p44
asS'DB00818'
p45
(lp46
S'1e7aA.LG1.pdb'
p47
aS'1e7aA.LG0.pdb'
p48
asS'DB00819'
p49
(lp50
S'3ml5A.LG0.pdb'
p51
aS'3czvB.LG0.pdb'
p52
aS'1bzmA.LG0.pdb'
p53
aS'3dc3A.LG0.pdb'
p54
aS'4lu3A.LG0.pdb'
p55
asS'DB00381'
p56
(lp57
S'3ua5A.LG2.pdb'
p58
aS'3ua5A.LG1.pdb'
p59
asS'DB00162'
p60
(lp61
S'1qabE.LG0.pdb'
p62
aS'2rctA.LG0.pdb'
p63
aS'3hy5A.LG0.pdb'
p64
aS'1fm6C.LG2.pdb'
p65
asS'DB00788'
p66
(lp67
S'2vdbA.LG6.pdb'
p68
aS'4jq1A.LG0.pdb'
p69
asS'DB04868'
p70
(lp71
S'3cs9A.LG0.pdb'
p72
asS'DB01098'
p73
(lp74
S'1hwlA.LG1.pdb'
p75
aS'1hwlA.LG2.pdb'
p76
asS'DB01095'
p77
(lp78
S'1hwiB.LG1.pdb'
p79
aS'1hwiB.LG2.pdb'
p80
asS'DB00783'
p81
(lp82
S'4pm1A.LG0.pdb'
p83
aS'1iolA.LG0.pdb'
p84
aS'1sqnB.LG0.pdb'
p85
aS'3ollA.LG1.pdb'
p86
aS'3q95B.LG1.pdb'
p87
aS'1lhnA.LG0.pdb'
p88
aS'2yloA.LG0.pdb'
p89
asS'DB00468'
p90
(lp91
S'4wnvA.LG1.pdb'
p92
asS'DB01023'
p93
(lp94
S'2nnjA.LG1.pdb'
p95
asS'DB00787'
p96
(lp97
S'2ki5B.LG0.pdb'
p98
asS'DB00703'
p99
(lp100
S'3ml5A.LG0.pdb'
p101
aS'3czvB.LG0.pdb'
p102
aS'1bzmA.LG0.pdb'
p103
aS'3dc3A.LG0.pdb'
p104
aS'4lu3A.LG0.pdb'
p105
asS'DB00253'
p106
(lp107
S'4bb2A.LG1.pdb'
p108
asS'DB01011'
p109
(lp110
S'1phgA.LG1.pdb'
p111
aS'1w0gA.LG0.pdb'
p112
asS'DB00255'
p113
(lp114
S'3erdA.LG1.pdb'
p115
aS'1tz8C.LG0.pdb'
p116
aS'1s9pD.LG0.pdb'
p117
asS'DB01259'
p118
(lp119
S'1xkkA.LG0.pdb'
p120
asS'DB00307'
p121
(lp122
S'4k6iA.LG1.pdb'
p123
asS'DB00544'
p124
(lp125
S'3nbqA.LG0.pdb'
p126
asS'DB00259'
p127
(lp128
S'1aj0A.LG1.pdb'
p129
asS'DB00709'
p130
(lp131
S'2noaA.LG1.pdb'
p132
asS'DB00890'
p133
(lp134
S'3erdA.LG1.pdb'
p135
asS'DB00153'
p136
(lp137
S'1ie9A.LG0.pdb'
p138
aS'3czhB.LG3.pdb'
p139
asS'DB01076'
p140
(lp141
S'3cctA.LG0.pdb'
p142
aS'3cctA.LG1.pdb'
p143
asS'DB03147'
p144
(lp145
S'2a1tC.LG1.pdb'
p146
aS'3tk0A.LG0.pdb'
p147
aS'1w4xA.LG0.pdb'
p148
aS'1qnfA.LG0.pdb'
p149
aS'1p3yA.LG0.pdb'
p150
aS'4bv6A.LG0.pdb'
p151
aS'1rx0D.LG1.pdb'
p152
aS'2f1oG.LG3.pdb'
p153
aS'1umkA.LG0.pdb'
p154
aS'1queA.LG0.pdb'
p155
aS'4kasC.LG1.pdb'
p156
aS'3qfcB.LG0.pdb'
p157
aS'1zp3B.LG0.pdb'
p158
aS'2r0nA.LG0.pdb'
p159
aS'1lpfB.LG0.pdb'
p160
aS'1v93A.LG0.pdb'
p161
aS'1bzlA.LG0.pdb'
p162
aS'1n4wA.LG0.pdb'
p163
aS'1u8vC.LG1.pdb'
p164
aS'4fgkA.LG3.pdb'
p165
aS'1gesA.LG0.pdb'
p166
aS'3ozuA.LG1.pdb'
p167
aS'1ddgA.LG0.pdb'
p168
aS'1rx0D.LG0.pdb'
p169
aS'2j09A.LG0.pdb'
p170
aS'1np7A.LG0.pdb'
p171
aS'1coyA.LG1.pdb'
p172
aS'1ewyC.LG0.pdb'
p173
aS'1ivhB.LG0.pdb'
p174
aS'1gvhA.LG0.pdb'
p175
aS'1zmdA.LG0.pdb'
p176
aS'1ivhB.LG1.pdb'
p177
aS'1bhyA.LG0.pdb'
p178
aS'3b6dA.LG0.pdb'
p179
aS'1ukwA.LG0.pdb'
p180
aS'1k87A.LG0.pdb'
p181
aS'1f0xB.LG0.pdb'
p182
aS'1knrA.LG0.pdb'
p183
aS'2c3cB.LG1.pdb'
p184
aS'2xnjA.LG0.pdb'
p185
aS'1krhA.LG0.pdb'
p186
aS'2gf3A.LG0.pdb'
p187
aS'1bucB.LG1.pdb'
p188
aS'2ez9B.LG1.pdb'
p189
aS'2z5xA.LG0.pdb'
p190
aS'2gr3A.LG0.pdb'
p191
aS'1iuxA.LG0.pdb'
p192
aS'1i19A.LG0.pdb'
p193
aS'2b76A.LG1.pdb'
p194
aS'1ryiD.LG0.pdb'
p195
aS'1nhrA.LG0.pdb'
p196
aS'2q85A.LG1.pdb'
p197
aS'1q1wA.LG0.pdb'
p198
aS'1a8pA.LG0.pdb'
p199
aS'1d4cA.LG4.pdb'
p200
aS'3znnB.LG0.pdb'
p201
aS'2vigE.LG1.pdb'
p202
aS'2a1tC.LG2.pdb'
p203
aS'3kkjA.LG0.pdb'
p204
aS'1i8tB.LG0.pdb'
p205
aS'2a1tC.LG0.pdb'
p206
aS'2vigE.LG0.pdb'
p207
aS'2f1oG.LG1.pdb'
p208
aS'1qo8B.LG4.pdb'
p209
aS'4fgkA.LG0.pdb'
p210
aS'1ksuB.LG4.pdb'
p211
aS'1f6mA.LG0.pdb'
p212
aS'1rz0D.LG0.pdb'
p213
aS'1lvlA.LG0.pdb'
p214
aS'4o5qA.LG0.pdb'
p215
aS'3qfbA.LG0.pdb'
p216
aS'1wvfA.LG0.pdb'
p217
aS'2a1tE.LG0.pdb'
p218
aS'3dk4A.LG0.pdb'
p219
aS'1dnpA.LG0.pdb'
p220
aS'1u8vC.LG2.pdb'
p221
asS'DB01412'
p222
(lp223
S'3rfmA.LG0.pdb'
p224
asS'DB01073'
p225
(lp226
S'2qroD.LG1.pdb'
p227
asS'DB00946'
p228
(lp229
S'1og5A.LG1.pdb'
p230
aS'1ha2A.LG6.pdb'
p231
asS'DB01070'
p232
(lp233
S'3a78A.LG0.pdb'
p234
asS'DB01764'
p235
(lp236
S'1mrlA.LG1.pdb'
p237
aS'1mrlA.LG0.pdb'
p238
asS'DB01172'
p239
(lp240
S'1knyA.LG2.pdb'
p241
aS'1knyA.LG1.pdb'
p242
asS'DB00605'
p243
(lp244
S'3rx2A.LG1.pdb'
p245
aS'4jq2A.LG0.pdb'
p246
aS'4iklA.LG0.pdb'
p247
asS'DB01197'
p248
(lp249
S'4c2pA.LG1.pdb'
p250
asS'DB00884'
p251
(lp252
S'4nkeA.LG0.pdb'
p253
asS'DB00864'
p254
(lp255
S'1fkfA.LG0.pdb'
p256
aS'4odrB.LG0.pdb'
p257
asS'DB06203'
p258
(lp259
sS'DB08604'
p260
(lp261
S'2pd3A.LG1.pdb'
p262
aS'1qsgG.LG2.pdb'
p263
aS'3gr6D.LG1.pdb'
p264
aS'2qioA.LG1.pdb'
p265
asS'DB01204'
p266
(lp267
S'4i41A.LG0.pdb'
p268
aS'4i41A.LG1.pdb'
p269
asS'DB00831'
p270
(lp271
S'3ko0H.LG3.pdb'
p272
aS'1ctrA.LG0.pdb'
p273
aS'3ko0H.LG1.pdb'
p274
aS'3ko0H.LG2.pdb'
p275
aS'1wrlC.LG3.pdb'
p276
aS'1wrlC.LG1.pdb'
p277
aS'1wrlC.LG2.pdb'
p278
aS'3ko0H.LG0.pdb'
p279
aS'1wrlC.LG0.pdb'
p280
asS'DB00594'
p281
(lp282
S'1f5lA.LG0.pdb'
p283
asS'DB00866'
p284
(lp285
S'3nyaA.LG2.pdb'
p286
asS'DB05294'
p287
(lp288
S'2ivuA.LG0.pdb'
p289
asS'DB01367'
p290
(lp291
S'2xfqA.LG1.pdb'
p292
asS'DB00862'
p293
(lp294
S'1xp0A.LG0.pdb'
p295
aS'1xotB.LG0.pdb'
p296
asS'DB00861'
p297
(lp298
S'4i89B.LG0.pdb'
p299
aS'2bxeA.LG1.pdb'
p300
aS'2bxeA.LG0.pdb'
p301
aS'2bxeA.LG2.pdb'
p302
asS'DB00860'
p303
(lp304
S'2vdyA.LG0.pdb'
p305
aS'4p6xK.LG2.pdb'
p306
asS'DB01142'
p307
(lp308
S'3rzeA.LG1.pdb'
p309
aS'3rzeA.LG0.pdb'
p310
asS'DB00477'
p311
(lp312
S'3apxA.LG0.pdb'
p313
asS'DB01087'
p314
(lp315
S'4fgjA.LG1.pdb'
p316
aS'4fgjA.LG2.pdb'
p317
asS'DB00869'
p318
(lp319
S'4m2uA.LG0.pdb'
p320
aS'3fw3B.LG0.pdb'
p321
asS'DB01085'
p322
(lp323
S'3t3zA.LG1.pdb'
p324
aS'3t3qA.LG1.pdb'
p325
asS'DB00175'
p326
(lp327
S'1hw8B.LG1.pdb'
p328
aS'1hw8B.LG0.pdb'
p329
asS'DB01254'
p330
(lp331
S'2gqgA.LG0.pdb'
p332
asS'DB00304'
p333
(lp334
S'3d90B.LG0.pdb'
p335
asS'DB06710'
p336
(lp337
S'1equA.LG1.pdb'
p338
aS'1e3kA.LG0.pdb'
p339
aS'3s79A.LG1.pdb'
p340
aS'2am9A.LG0.pdb'
p341
aS'3ollA.LG1.pdb'
p342
aS'1lhnA.LG0.pdb'
p343
asS'DB00171'
p344
(lp345
S'3eqdA.LG0.pdb'
p346
aS'1r4nH.LG0.pdb'
p347
aS'2idxC.LG0.pdb'
p348
aS'2bbtB.LG1.pdb'
p349
aS'2idxC.LG1.pdb'
p350
aS'2qk4B.LG0.pdb'
p351
aS'4aw0A.LG0.pdb'
p352
aS'2cchA.LG0.pdb'
p353
aS'4py0A.LG0.pdb'
p354
aS'2ocpE.LG0.pdb'
p355
aS'2g2fB.LG0.pdb'
p356
aS'1c1yA.LG0.pdb'
p357
aS'2bbtB.LG0.pdb'
p358
aS'3t0zA.LG0.pdb'
p359
aS'2xcwA.LG0.pdb'
p360
asS'DB00170'
p361
(lp362
S'2qr2A.LG2.pdb'
p363
asS'DB01004'
p364
(lp365
S'1ki2B.LG0.pdb'
p366
asS'DB00172'
p367
(lp368
S'4k87A.LG1.pdb'
p369
aS'5cyhA.LG0.pdb'
p370
asS'DB01244'
p371
(lp372
S'1lxfA.LG1.pdb'
p373
asS'DB00266'
p374
(lp375
S'2f1oG.LG0.pdb'
p376
aS'2f1oG.LG2.pdb'
p377
asS'DB01242'
p378
(lp379
S'2q72A.LG6.pdb'
p380
aS'2q72A.LG7.pdb'
p381
asS'DB00117'
p382
(lp383
S'4phcA.LG0.pdb'
p384
asS'DB00116'
p385
(lp386
S'1wsvB.LG0.pdb'
p387
asS'DB00115'
p388
(lp389
S'2pmvC.LG1.pdb'
p390
asS'DB00755'
p391
(lp392
S'4i9rA.LG0.pdb'
p393
aS'4exzA.LG0.pdb'
p394
aS'2nnhB.LG2.pdb'
p395
aS'2lbdA.LG0.pdb'
p396
aS'2nnhB.LG1.pdb'
p397
aS'3fc6A.LG0.pdb'
p398
asS'DB01026'
p399
(lp400
S'2v0mC.LG1.pdb'
p401
aS'3ld6A.LG1.pdb'
p402
aS'3ozwA.LG2.pdb'
p403
asS'DB00149'
p404
(lp405
S'1abwA.LG2.pdb'
p406
aS'1abwA.LG1.pdb'
p407
asS'DB00207'
p408
(lp409
S'2j0dA.LG1.pdb'
p410
asS'DB00977'
p411
(lp412
S'1qkuA.LG0.pdb'
p413
aS'1xq3A.LG0.pdb'
p414
aS'1iolA.LG0.pdb'
p415
asS'DB00613'
p416
(lp417
S'2aouA.LG0.pdb'
p418
aS'2aouA.LG1.pdb'
p419
asS'DB00203'
p420
(lp421
S'3jwqC.LG0.pdb'
p422
aS'1xosA.LG0.pdb'
p423
asS'DB00201'
p424
(lp425
S'3rfmA.LG0.pdb'
p426
asS'DB00200'
p427
(lp428
S'4kkiA.LG4.pdb'
p429
asS'DB00302'
p430
(lp431
S'1cebA.LG0.pdb'
p432
aS'1b2iA.LG0.pdb'
p433
asS'DB00284'
p434
(lp435
sS'DB08881'
p436
(lp437
S'3og7A.LG0.pdb'
p438
asS'DB00282'
p439
(lp440
S'4kpjA.LG0.pdb'
p441
asS'DB00281'
p442
(lp443
S'3jqzA.LG0.pdb'
p444
asS'DB08882'
p445
(lp446
sS'DB02300'
p447
(lp448
S'1s19A.LG0.pdb'
p449
asS'DB01030'
p450
(lp451
S'1k4tD.LG0.pdb'
p452
asS'DB00682'
p453
(lp454
S'1og5B.LG1.pdb'
p455
aS'1ha2A.LG6.pdb'
p456
asS'DB00877'
p457
(lp458
S'4driB.LG0.pdb'
p459
aS'2dg3A.LG0.pdb'
p460
aS'4drhA.LG0.pdb'
p461
aS'4drjA.LG0.pdb'
p462
asS'DB00687'
p463
(lp464
S'1gs4A.LG0.pdb'
p465
aS'4p6xE.LG1.pdb'
p466
aS'2aaxA.LG0.pdb'
p467
asS'DB00563'
p468
(lp469
S'4lrhD.LG0.pdb'
p470
aS'2w3mA.LG1.pdb'
p471
asS'DB02659'
p472
(lp473
S'3hcnA.LG1.pdb'
p474
aS'2dqyA.LG3.pdb'
p475
aS'1s9qA.LG1.pdb'
p476
aS'3hcnA.LG0.pdb'
p477
aS'2bjfA.LG0.pdb'
p478
asS'DB00446'
p479
(lp480
S'2xatA.LG0.pdb'
p481
aS'1qhyA.LG2.pdb'
p482
aS'1usqF.LG0.pdb'
p483
aS'3claA.LG0.pdb'
p484
aS'1qhyA.LG1.pdb'
p485
asS'DB00441'
p486
(lp487
S'2no0A.LG1.pdb'
p488
asS'DB00879'
p489
(lp490
S'2noaA.LG1.pdb'
p491
asS'DB00443'
p492
(lp493
S'1m2zA.LG3.pdb'
p494
asS'DB00373'
p495
(lp496
S'3d4sA.LG0.pdb'
p497
asS'DB00163'
p498
(lp499
S'1oipA.LG0.pdb'
p500
asS'DB00278'
p501
(lp502
S'4rn6A.LG0.pdb'
p503
asS'DB00279'
p504
(lp505
S'3ozkA.LG0.pdb'
p506
aS'1hk4A.LG7.pdb'
p507
aS'2pivA.LG1.pdb'
p508
aS'2ceoA.LG0.pdb'
p509
aS'2h79A.LG0.pdb'
p510
asS'DB01261'
p511
(lp512
sS'DB01065'
p513
(lp514
S'2qwxB.LG3.pdb'
p515
aS'2qwxB.LG1.pdb'
p516
asS'DB00273'
p517
(lp518
S'3hkuA.LG0.pdb'
p519
asS'DB00378'
p520
(lp521
S'1a28A.LG0.pdb'
p522
asS'DB00277'
p523
(lp524
S'3rfmA.LG0.pdb'
p525
asS'DB01051'
p526
(lp527
S'4uroA.LG0.pdb'
p528
asS'DB01050'
p529
(lp530
S'2bxgB.LG1.pdb'
p531
aS'3r8gA.LG1.pdb'
p532
aS'2bxgB.LG0.pdb'
p533
asS'DB00583'
p534
(lp535
S'1s5oA.LG0.pdb'
p536
asS'DB00173'
p537
(lp538
S'1mudA.LG2.pdb'
p539
aS'1z5nA.LG1.pdb'
p540
aS'1yxmB.LG0.pdb'
p541
aS'1hqcA.LG0.pdb'
p542
aS'1s2dC.LG0.pdb'
p543
aS'1mudA.LG1.pdb'
p544
aS'1jh8A.LG0.pdb'
p545
aS'1cb0A.LG0.pdb'
p546
aS'1zn7A.LG2.pdb'
p547
asS'DB06605'
p548
(lp549
S'2p16A.LG0.pdb'
p550
asS'DB01113'
p551
(lp552
S'2weyB.LG0.pdb'
p553
asS'DB00742'
p554
(lp555
S'1m2wB.LG1.pdb'
p556
asS'DB00212'
p557
(lp558
S'3d91B.LG0.pdb'
p559
asS'DB01656'
p560
(lp561
S'3g4lD.LG0.pdb'
p562
asS'DB00294'
p563
(lp564
S'2w8yB.LG0.pdb'
p565
asS'DB01586'
p566
(lp567
S'1ihiA.LG1.pdb'
p568
asS'DB08896'
p569
(lp570
S'1uwhB.LG0.pdb'
p571
aS'4asdA.LG0.pdb'
p572
asS'DB00291'
p573
(lp574
S'3csjB.LG1.pdb'
p575
asS'DB00152'
p576
(lp577
S'3s4yB.LG0.pdb'
p578
aS'3s4yB.LG1.pdb'
p579
asS'DB00293'
p580
(lp581
S'1hvyB.LG0.pdb'
p582
asS'DB00741'
p583
(lp584
S'4dvqE.LG1.pdb'
p585
aS'1m2zA.LG3.pdb'
p586
asS'DB03255'
p587
(lp588
S'4i7lB.LG0.pdb'
p589
aS'1jhyA.LG0.pdb'
p590
asS'DB02703'
p591
(lp592
S'1q23B.LG0.pdb'
p593
aS'1q23B.LG1.pdb'
p594
aS'1qcaA.LG0.pdb'
p595
asS'DB00513'
p596
(lp597
S'1ceaA.LG0.pdb'
p598
aS'2pk4A.LG0.pdb'
p599
aS'1pk2A.LG0.pdb'
p600
asS'DB00547'
p601
(lp602
S'1m2zA.LG3.pdb'
p603
asS'DB00843'
p604
(lp605
S'4ey7B.LG1.pdb'
p606
asS'DB00695'
p607
(lp608
S'1z9yA.LG0.pdb'
p609
asS'DB00696'
p610
(lp611
S'4iarA.LG0.pdb'
p612
asS'DB00471'
p613
(lp614
S'2nniA.LG1.pdb'
p615
asS'DB05812'
p616
(lp617
S'3rukD.LG1.pdb'
p618
asS'DB00451'
p619
(lp620
S'3ozkA.LG0.pdb'
p621
aS'1hk4A.LG7.pdb'
p622
aS'2pivA.LG1.pdb'
p623
aS'2ceoA.LG0.pdb'
p624
aS'2h79A.LG0.pdb'
p625
asS'DB00456'
p626
(lp627
S'1kvlA.LG1.pdb'
p628
asS'DB01268'
p629
(lp630
S'4agdA.LG0.pdb'
p631
asS'DB00360'
p632
(lp633
S'1mlwA.LG0.pdb'
p634
aS'4d1nC.LG2.pdb'
p635
aS'4d1oB.LG4.pdb'
p636
aS'4nosD.LG2.pdb'
p637
aS'4nosD.LG0.pdb'
p638
aS'1mmkA.LG0.pdb'
p639
aS'4d1nC.LG6.pdb'
p640
aS'4d1oB.LG1.pdb'
p641
asS'DB04786'
p642
(lp643
S'3bf6B.LG1.pdb'
p644
aS'2nyrA.LG0.pdb'
p645
aS'1y8eA.LG0.pdb'
p646
asS'DB00199'
p647
(lp648
S'2j0dA.LG1.pdb'
p649
asS'DB00367'
p650
(lp651
S'2ambA.LG0.pdb'
p652
aS'2b1zB.LG1.pdb'
p653
aS'1e3kA.LG0.pdb'
p654
asS'DB00368'
p655
(lp656
S'4pahA.LG0.pdb'
p657
asS'DB02546'
p658
(lp659
S'4qa0A.LG0.pdb'
p660
aS'4qa0A.LG1.pdb'
p661
aS'4lxzA.LG3.pdb'
p662
aS'1c3sA.LG0.pdb'
p663
asS'DB00194'
p664
(lp665
S'3iarA.LG0.pdb'
p666
asS'DB02187'
p667
(lp668
S'1fdtA.LG0.pdb'
p669
aS'3eqmA.LG1.pdb'
p670
asS'DB00131'
p671
(lp672
S'1oreA.LG0.pdb'
p673
aS'2y8lC.LG2.pdb'
p674
aS'1rorA.LG0.pdb'
p675
aS'3fhjA.LG1.pdb'
p676
aS'3tw2A.LG0.pdb'
p677
aS'1xqsC.LG0.pdb'
p678
aS'1yxuA.LG0.pdb'
p679
aS'1t9gF.LG0.pdb'
p680
aS'1ftaA.LG0.pdb'
p681
asS'DB00130'
p682
(lp683
S'3vp0A.LG0.pdb'
p684
asS'DB00738'
p685
(lp686
sS'DB00135'
p687
(lp688
S'1q11A.LG0.pdb'
p689
asS'DB00134'
p690
(lp691
S'1kq0A.LG0.pdb'
p692
asS'DB00619'
p693
(lp694
S'1t46A.LG0.pdb'
p695
aS'2pl0A.LG0.pdb'
p696
aS'4bkjB.LG0.pdb'
p697
aS'2hyyB.LG0.pdb'
p698
asS'DB00317'
p699
(lp700
S'2itzA.LG0.pdb'
p701
asS'DB00223'
p702
(lp703
S'1m2zA.LG3.pdb'
p704
asS'DB01045'
p705
(lp706
sS'DB00227'
p707
(lp708
S'1cqpA.LG0.pdb'
p709
asS'DB04711'
p710
(lp711
S'2bxnA.LG6.pdb'
p712
asS'DB00558'
p713
(lp714
S'2f0zA.LG0.pdb'
p715
aS'1a4gB.LG1.pdb'
p716
asS'DB01144'
p717
(lp718
S'2pouA.LG0.pdb'
p719
asS'DB01590'
p720
(lp721
S'1fapA.LG0.pdb'
p722
aS'4drjA.LG0.pdb'
p723
aS'4drhA.LG0.pdb'
p724
aS'4driB.LG0.pdb'
p725
asS'DB00147'
p726
(lp727
S'3fhxB.LG1.pdb'
p728
asS'DB00169'
p729
(lp730
S'1j78B.LG2.pdb'
p731
aS'1ie9A.LG0.pdb'
p732
aS'3czhB.LG3.pdb'
p733
asS'DB08865'
p734
(lp735
S'4ansA.LG0.pdb'
p736
aS'2wgjA.LG0.pdb'
p737
asS'DB01025'
p738
(lp739
S'2kotB.LG0.pdb'
p740
asS'DB00119'
p741
(lp742
S'3srfH.LG0.pdb'
p743
asS'DB00910'
p744
(lp745
S'1ie9A.LG0.pdb'
p746
asS'DB01213'
p747
(lp748
S'3e4eA.LG1.pdb'
p749
asS'DB00996'
p750
(lp751
S'2cojA.LG1.pdb'
p752
asS'DB01211'
p753
(lp754
S'2j0dA.LG1.pdb'
p755
asS'DB00503'
p756
(lp757
S'4i4gA.LG1.pdb'
p758
asS'DB01194'
p759
(lp760
S'4m2vA.LG0.pdb'
p761
asS'DB01216'
p762
(lp763
S'3g1rB.LG1.pdb'
p764
asS'DB00858'
p765
(lp766
S'3ollA.LG1.pdb'
p767
aS'2am9A.LG0.pdb'
p768
aS'1equA.LG1.pdb'
p769
aS'3s79A.LG1.pdb'
p770
aS'1lhnA.LG0.pdb'
p771
asS'DB00990'
p772
(lp773
S'1equA.LG1.pdb'
p774
aS'3s7sA.LG1.pdb'
p775
asS'DB00509'
p776
(lp777
S'2pivA.LG1.pdb'
p778
aS'2h79A.LG0.pdb'
p779
asS'DB00850'
p780
(lp781
S'3m0wI.LG2.pdb'
p782
aS'3m0wI.LG0.pdb'
p783
aS'3m0wI.LG1.pdb'
p784
asS'DB01103'
p785
(lp786
S'1jqeA.LG1.pdb'
p787
asS'DB00620'
p788
(lp789
S'2vdyA.LG0.pdb'
p790
aS'4p6xE.LG1.pdb'
p791
asS'DB00623'
p792
(lp793
S'3ko0H.LG3.pdb'
p794
aS'1ctrA.LG0.pdb'
p795
aS'3ko0H.LG1.pdb'
p796
aS'3ko0H.LG2.pdb'
p797
aS'1wrlC.LG3.pdb'
p798
aS'1wrlC.LG1.pdb'
p799
aS'1wrlC.LG2.pdb'
p800
aS'3ko0H.LG0.pdb'
p801
aS'1wrlC.LG0.pdb'
p802
asS'DB00428'
p803
(lp804
S'2w4xA.LG1.pdb'
p805
asS'DB00184'
p806
(lp807
S'4ejgB.LG1.pdb'
p808
asS'DB00205'
p809
(lp810
S'1j3jA.LG0.pdb'
p811
asS'DB00421'
p812
(lp813
S'2ab2B.LG0.pdb'
p814
asS'DB00481'
p815
(lp816
S'2qxsA.LG0.pdb'
p817
asS'DB00480'
p818
(lp819
S'4tz4B.LG0.pdb'
p820
asS'DB00495'
p821
(lp822
S'3b9mA.LG6.pdb'
p823
asS'DB06228'
p824
(lp825
S'2w26A.LG0.pdb'
p826
asS'DB00642'
p827
(lp828
S'4m6lA.LG0.pdb'
p829
aS'1ju6C.LG1.pdb'
p830
asS'DB00128'
p831
(lp832
S'4gdvA.LG0.pdb'
p833
aS'2nz2A.LG0.pdb'
p834
asS'DB00640'
p835
(lp836
S'1bx4A.LG0.pdb'
p837
aS'3iarA.LG0.pdb'
p838
aS'1bx4A.LG1.pdb'
p839
aS'2ydoA.LG0.pdb'
p840
asS'DB00337'
p841
(lp842
S'1bkfA.LG0.pdb'
p843
aS'4odrB.LG0.pdb'
p844
asS'DB00127'
p845
(lp846
S'3c6mB.LG0.pdb'
p847
asS'DB00722'
p848
(lp849
S'1o86A.LG0.pdb'
p850
asS'DB00125'
p851
(lp852
S'4d1nA.LG0.pdb'
p853
aS'4d1oB.LG0.pdb'
p854
aS'1nsiC.LG2.pdb'
p855
asS'DB00122'
p856
(lp857
S'2fy3A.LG0.pdb'
p858
aS'1p0mA.LG5.pdb'
p859
asS'DB00458'
p860
(lp861
S'2q72A.LG6.pdb'
p862
aS'2q72A.LG7.pdb'
p863
asS'DB00120'
p864
(lp865
S'3l4gC.LG0.pdb'
p866
aS'3hfvA.LG0.pdb'
p867
asS'DB00727'
p868
(lp869
S'4fr8A.LG0.pdb'
p870
asS'DB00908'
p871
(lp872
S'4wnvA.LG1.pdb'
p873
asS'DB06777'
p874
(lp875
S'3hcnA.LG1.pdb'
p876
aS'3rv5C.LG0.pdb'
p877
aS'3hcnA.LG0.pdb'
p878
asS'DB00905'
p879
(lp880
S'2f38A.LG1.pdb'
p881
asS'DB00118'
p882
(lp883
S'2obvA.LG0.pdb'
p884
aS'4ndnC.LG1.pdb'
p885
aS'3bwyA.LG0.pdb'
p886
aS'4pcuB.LG2.pdb'
p887
asS'DB00900'
p888
(lp889
S'1v3qA.LG0.pdb'
p890
asS'DB00624'
p891
(lp892
S'1equA.LG1.pdb'
p893
aS'1e3kA.LG0.pdb'
p894
aS'3hlvB.LG1.pdb'
p895
aS'4pm1A.LG0.pdb'
p896
aS'3s79A.LG1.pdb'
p897
aS'3ollA.LG1.pdb'
p898
aS'2am9A.LG0.pdb'
p899
aS'1lhnA.LG0.pdb'
p900
asS'DB00165'
p901
(lp902
S'3fhxB.LG1.pdb'
p903
asS'DB01200'
p904
(lp905
S'3ua1A.LG1.pdb'
p906
asS'DB04835'
p907
(lp908
S'4mbsA.LG0.pdb'
p909
asS'DB00829'
p910
(lp911
S'2bxfB.LG0.pdb'
p912
asS'DB00987'
p913
(lp914
S'1p60A.LG1.pdb'
p915
asS'DB00539'
p916
(lp917
S'1ya4B.LG2.pdb'
p918
aS'3ertA.LG0.pdb'
p919
aS'1ya4B.LG1.pdb'
p920
asS'DB00982'
p921
(lp922
S'3a9eB.LG1.pdb'
p923
asS'DB04839'
p924
(lp925
S'2oz7A.LG0.pdb'
p926
asS'DB00820'
p927
(lp928
S'1xozA.LG0.pdb'
p929
asS'DB00988'
p930
(lp931
S'2qmzB.LG3.pdb'
p932
aS'2qmzB.LG1.pdb'
p933
aS'4a7vA.LG0.pdb'
p934
asS'DB00530'
p935
(lp936
S'1m17A.LG0.pdb'
p937
asS'DB00181'
p938
(lp939
S'4ms4A.LG0.pdb'
p940
asS'DB00136'
p941
(lp942
S'1ie9A.LG0.pdb'
p943
asS'DB00630'
p944
(lp945
S'2f92A.LG0.pdb'
p946
asS'DB00631'
p947
(lp948
S'2zi9A.LG1.pdb'
p949
asS'DB01234'
p950
(lp951
S'4p6xE.LG1.pdb'
p952
asS'DB01123'
p953
(lp954
S'1qvtC.LG0.pdb'
p955
aS'1bcuB.LG1.pdb'
p956
aS'2v57C.LG0.pdb'
p957
asS'DB00635'
p958
(lp959
S'2vdyA.LG0.pdb'
p960
aS'4p6xK.LG2.pdb'
p961
asS'DB06335'
p962
(lp963
sS'DB00733'
p964
(lp965
S'4axbA.LG1.pdb'
p966
asS'DB01128'
p967
(lp968
S'4ok1A.LG1.pdb'
p969
asS'DB00655'
p970
(lp971
S'4pm1A.LG0.pdb'
p972
aS'2q7jA.LG1.pdb'
p973
aS'3q95B.LG1.pdb'
p974
aS'1iolA.LG0.pdb'
p975
aS'1sqnB.LG0.pdb'
p976
asS'DB00159'
p977
(lp978
S'1fe3A.LG0.pdb'
p979
aS'3emlA.LG4.pdb'
p980
aS'3emlA.LG1.pdb'
p981
aS'2zk3A.LG0.pdb'
p982
aS'3emlA.LG2.pdb'
p983
aS'3emlA.LG3.pdb'
p984
aS'3gwxA.LG0.pdb'
p985
aS'3emlA.LG5.pdb'
p986
asS'DB00158'
p987
(lp988
S'4kn1A.LG0.pdb'
p989
asS'DB00328'
p990
(lp991
S'1dcyA.LG0.pdb'
p992
aS'2zb8A.LG1.pdb'
p993
aS'4dbwB.LG1.pdb'
p994
aS'4dbwB.LG2.pdb'
p995
aS'3adxA.LG1.pdb'
p996
aS'2bxmA.LG8.pdb'
p997
aS'2bxmA.LG7.pdb'
p998
asS'DB01384'
p999
(lp1000
S'2vdyA.LG0.pdb'
p1001
aS'1m2zA.LG3.pdb'
p1002
asS'DB00499'
p1003
(lp1004
S'4oh5A.LG1.pdb'
p1005
asS'DB01626'
p1006
(lp1007
S'1gosA.LG1.pdb'
p1008
asS'DB01436'
p1009
(lp1010
S'1j78B.LG2.pdb'
p1011
aS'1ie9A.LG0.pdb'
p1012
asS'DB00150'
p1013
(lp1014
S'1mb2D.LG0.pdb'
p1015
aS'2azxD.LG0.pdb'
p1016
aS'3fhjC.LG0.pdb'
p1017
asS'DB00320'
p1018
(lp1019
S'4ib4A.LG0.pdb'
p1020
aS'4iarA.LG0.pdb'
p1021
asS'DB00321'
p1022
(lp1023
S'3rzeA.LG1.pdb'
p1024
aS'3rzeA.LG0.pdb'
p1025
asS'DB01431'
p1026
(lp1027
S'2w8yB.LG0.pdb'
p1028
asS'DB08916'
p1029
(lp1030
S'4g5jA.LG1.pdb'
p1031
aS'4g5jA.LG0.pdb'
p1032
aS'4g5jA.LG2.pdb'
p1033
asS'DB00943'
p1034
(lp1035
S'2no7A.LG1.pdb'
p1036
asS'DB08910'
p1037
(lp1038
S'4tz4B.LG0.pdb'
p1039
asS'DB00933'
p1040
(lp1041
S'3tbgA.LG0.pdb'
p1042
aS'3tbgA.LG1.pdb'
p1043
asS'DB06262'
p1044
(lp1045
S'6pahA.LG0.pdb'
p1046
asS'DB00936'
p1047
(lp1048
S'3b9mA.LG8.pdb'
p1049
aS'3b9mA.LG7.pdb'
p1050
asS'DB00523'
p1051
(lp1052
S'2lbdA.LG0.pdb'
p1053
aS'4nqaG.LG1.pdb'
p1054
aS'4exzA.LG0.pdb'
p1055
aS'4i9rA.LG0.pdb'
p1056
asS'DB00129'
p1057
(lp1058
S'3gmzB.LG0.pdb'
p1059
aS'3jdwA.LG0.pdb'
p1060
asS'DB00834'
p1061
(lp1062
S'3h52B.LG1.pdb'
p1063
aS'2w8yA.LG0.pdb'
p1064
asS'DB01132'
p1065
(lp1066
S'2xkwA.LG0.pdb'
p1067
asS'DB00126'
p1068
(lp1069
S'1xidA.LG0.pdb'
p1070
asS'DB00232'
p1071
(lp1072
S'1zgfA.LG0.pdb'
p1073
asS'DB01137'
p1074
(lp1075
S'3k9fD.LG1.pdb'
p1076
asS'DB01037'
p1077
(lp1078
S'2bybA.LG1.pdb'
p1079
asS'DB01157'
p1080
(lp1081
S'1s3vA.LG0.pdb'
p1082
asS'DB00148'
p1083
(lp1084
S'3b6rB.LG1.pdb'
p1085
asS'DB06616'
p1086
(lp1087
S'4mxzA.LG0.pdb'
p1088
aS'3ue4A.LG0.pdb'
p1089
asS'DB00091'
p1090
(lp1091
S'1mf8B.LG0.pdb'
p1092
aS'1m63A.LG0.pdb'
p1093
aS'1cynA.LG0.pdb'
p1094
aS'3odiA.LG1.pdb'
p1095
aS'3odiA.LG2.pdb'
p1096
aS'3odiA.LG0.pdb'
p1097
aS'2z6wB.LG0.pdb'
p1098
asS'DB00155'
p1099
(lp1100
S'2nz2A.LG1.pdb'
p1101
aS'2jaiA.LG0.pdb'
p1102
asS'DB01151'
p1103
(lp1104
S'2q72A.LG6.pdb'
p1105
aS'2q72A.LG7.pdb'
p1106
asS'DB00140'
p1107
(lp1108
S'1nb9A.LG1.pdb'
p1109
aS'1hzeA.LG0.pdb'
p1110
asS'DB00668'
p1111
(lp1112
S'3pahA.LG0.pdb'
p1113
aS'4ldoA.LG1.pdb'
p1114
asS'DB00143'
p1115
(lp1116
S'1eemA.LG0.pdb'
p1117
aS'4ec0B.LG0.pdb'
p1118
aS'2ht9B.LG0.pdb'
p1119
aS'3gurD.LG0.pdb'
p1120
aS'1yzxB.LG0.pdb'
p1121
aS'1fw1A.LG1.pdb'
p1122
aS'2hgsA.LG1.pdb'
p1123
aS'1b4qA.LG0.pdb'
p1124
aS'3dk4A.LG3.pdb'
p1125
aS'3bhjA.LG3.pdb'
p1126
aS'3dk4A.LG2.pdb'
p1127
aS'2uuhA.LG1.pdb'
p1128
aS'2vcrH.LG0.pdb'
p1129
aS'3fr9A.LG0.pdb'
p1130
aS'3csiB.LG2.pdb'
p1131
aS'2vczC.LG0.pdb'
p1132
aS'3ob7D.LG0.pdb'
p1133
aS'1hnlA.LG0.pdb'
p1134
aS'1qh5A.LG0.pdb'
p1135
aS'3qagA.LG0.pdb'
p1136
asS'DB01159'
p1137
(lp1138
S'1e7cA.LG6.pdb'
p1139
aS'1e7cA.LG9.pdb'
p1140
aS'1e7cA.LG7.pdb'
p1141
aS'1e7cA.LG5.pdb'
p1142
aS'1e7cA.LG8.pdb'
p1143
asS'DB00146'
p1144
(lp1145
S'3a78A.LG0.pdb'
p1146
asS'DB00123'
p1147
(lp1148
S'4dpgB.LG0.pdb'
p1149
asS'DB00586'
p1150
(lp1151
S'3cfqA.LG0.pdb'
p1152
asS'DB08906'
p1153
(lp1154
S'3cldA.LG1.pdb'
p1155
asS'DB00806'
p1156
(lp1157
S'3tvxB.LG0.pdb'
p1158
asS'DB08901'
p1159
(lp1160
S'4u0iA.LG0.pdb'
p1161
aS'4tyjA.LG0.pdb'
p1162
aS'4qrcA.LG0.pdb'
p1163
asS'DB00396'
p1164
(lp1165
S'1w0fA.LG0.pdb'
p1166
aS'2aa6A.LG0.pdb'
p1167
aS'4nkxC.LG1.pdb'
p1168
aS'1a28A.LG0.pdb'
p1169
asS'DB00399'
p1170
(lp1171
S'4p0wA.LG1.pdb'
p1172
asS'DB00398'
p1173
(lp1174
S'1uwjA.LG0.pdb'
p1175
aS'4asdA.LG0.pdb'
p1176
asS'DB00417'
p1177
(lp1178
S'2z71B.LG0.pdb'
p1179
asS'DB00412'
p1180
(lp1181
S'1zgyA.LG1.pdb'
p1182
asS'DB00410'
p1183
(lp1184
sS'DB04876'
p1185
(lp1186
sS'DB01021'
p1187
(lp1188
S'1zgfA.LG0.pdb'
p1189
asS'DB00242'
p1190
(lp1191
S'2zi9A.LG1.pdb'
p1192
asS'DB00717'
p1193
(lp1194
S'1lhuA.LG0.pdb'
p1195
aS'1a27A.LG0.pdb'
p1196
aS'1e3kA.LG0.pdb'
p1197
aS'1e3gA.LG0.pdb'
p1198
asS'DB00240'
p1199
(lp1200
S'2vdyA.LG0.pdb'
p1201
aS'1m2zA.LG3.pdb'
p1202
asS'DB00710'
p1203
(lp1204
S'2f94A.LG0.pdb'
p1205
asS'DB00712'
p1206
(lp1207
S'1r9oA.LG1.pdb'
p1208
aS'3r94A.LG1.pdb'
p1209
asS'DB00553'
p1210
(lp1211
S'1z11A.LG1.pdb'
p1212
asS'DB00909'
p1213
(lp1214
S'3po7A.LG1.pdb'
p1215
as.